

Microchip MPLAB XC8 Assembler V2.32 build 20210201212658 
                                                                                               Sun Aug 01 19:27:41 2021

Microchip MPLAB XC8 C Compiler v2.32 (Free license) build 20210201212658 Og1 
     1                           	processor	18F4520
     2                           	fnconf	rparam,??,?,0
     3                           	pagewidth 120
     4                           	opt	flic
     5                           	psect	idataCOMRAM,global,class=CODE,delta=1,noexec
     6                           	psect	idataBANK0,global,class=CODE,delta=1,noexec
     7                           	psect	cinit,global,reloc=2,class=CODE,delta=1
     8                           	psect	bssCOMRAM,global,class=COMRAM,space=1,delta=1,lowdata,noexec
     9                           	psect	dataCOMRAM,global,class=COMRAM,space=1,delta=1,lowdata,noexec
    10                           	psect	dataBANK0,global,class=BANK0,space=1,delta=1,lowdata,noexec
    11                           	psect	cstackCOMRAM,global,class=COMRAM,space=1,delta=1,lowdata,noexec
    12                           	psect	text0,global,reloc=2,class=CODE,delta=1
    13                           	psect	text1,global,reloc=2,class=CODE,delta=1
    14                           	psect	text2,global,reloc=2,class=CODE,delta=1
    15                           	psect	text3,global,reloc=2,class=CODE,delta=1
    16                           	psect	text4,global,reloc=2,class=CODE,delta=1
    17                           	psect	text5,global,reloc=2,class=CODE,delta=1
    18                           	psect	text6,global,reloc=2,class=CODE,delta=1
    19                           	psect	text7,global,reloc=2,class=CODE,delta=1
    20                           	psect	text8,global,reloc=2,class=CODE,delta=1
    21                           	psect	text9,global,reloc=2,class=CODE,delta=1
    22                           	psect	text10,global,reloc=2,class=CODE,delta=1
    23                           	psect	text11,global,reloc=2,class=CODE,delta=1
    24                           	psect	text12,global,reloc=2,class=CODE,delta=1
    25                           	psect	text13,global,reloc=2,class=CODE,delta=1
    26                           	psect	text14,global,reloc=2,class=CODE,delta=1
    27                           	psect	text15,global,reloc=2,class=CODE,delta=1
    28                           	psect	text16,global,reloc=2,class=CODE,delta=1
    29                           	psect	text17,global,reloc=2,class=CODE,delta=1
    30                           	psect	text18,global,reloc=2,class=CODE,delta=1
    31                           	psect	text19,global,reloc=2,class=CODE,delta=1
    32                           	psect	text20,global,reloc=2,class=CODE,delta=1
    33                           	psect	text21,global,reloc=2,class=CODE,delta=1
    34                           	psect	text22,global,reloc=2,class=CODE,delta=1
    35                           	psect	text23,global,reloc=2,class=CODE,delta=1
    36                           	psect	text24,global,reloc=2,class=CODE,delta=1
    37                           	psect	text25,global,reloc=2,class=CODE,delta=1
    38                           	psect	text26,global,reloc=2,class=CODE,delta=1
    39                           	psect	text27,global,reloc=2,class=CODE,delta=1
    40                           	psect	text28,global,reloc=2,class=CODE,delta=1,group=1
    41                           	psect	text29,global,reloc=2,class=CODE,delta=1,group=1
    42                           	psect	text30,global,reloc=2,class=CODE,delta=1
    43                           	psect	text31,global,reloc=2,class=CODE,delta=1
    44                           	psect	text32,global,reloc=2,class=CODE,delta=1,group=1
    45                           	psect	text33,global,reloc=2,class=CODE,delta=1
    46                           	psect	intsave_regs,global,class=BIGRAM,space=1,delta=1,noexec
    47                           	psect	rparam,global,class=COMRAM,space=1,delta=1,noexec
    48                           	psect	idloc,global,abs,ovrld,class=IDLOC,space=5,delta=1,noexec
    49                           	psect	config,global,abs,ovrld,class=CONFIG,space=4,delta=1,noexec
    50  0000                     
    51                           ; Version 2.32
    52                           ; Generated 02/02/2021 GMT
    53                           ; 
    54                           ; Copyright © 2021, Microchip Technology Inc. and its subsidiaries ("Microchip")
    55                           ; All rights reserved.
    56                           ; 
    57                           ; This software is developed by Microchip Technology Inc. and its subsidiaries ("Microch
      +                          ip").
    58                           ; 
    59                           ; Redistribution and use in source and binary forms, with or without modification, are
    60                           ; permitted provided that the following conditions are met:
    61                           ; 
    62                           ;     1. Redistributions of source code must retain the above copyright notice, this lis
      +                          t of
    63                           ;        conditions and the following disclaimer.
    64                           ; 
    65                           ;     2. Redistributions in binary form must reproduce the above copyright notice, this 
      +                          list
    66                           ;        of conditions and the following disclaimer in the documentation and/or other
    67                           ;        materials provided with the distribution. Publication is not required when
    68                           ;        this file is used in an embedded application.
    69                           ; 
    70                           ;     3. Microchip's name may not be used to endorse or promote products derived from th
      +                          is
    71                           ;        software without specific prior written permission.
    72                           ; 
    73                           ; THIS SOFTWARE IS PROVIDED BY MICROCHIP "AS IS" AND ANY EXPRESS OR IMPLIED WARRANTIES,
    74                           ; INCLUDING, BUT NOT LIMITED TO, THE IMPLIED WARRANTIES OF MERCHANTABILITY AND FITNESS F
      +                          OR
    75                           ; PURPOSE ARE DISCLAIMED.  IN NO EVENT SHALL MICROCHIP BE LIABLE FOR ANY DIRECT, INDIREC
      +                          T,
    76                           ; INCIDENTAL, SPECIAL, EXEMPLARY, OR CONSEQUENTIAL DAMAGES (INCLUDING BUT NOT LIMITED TO
    77                           ; PROCUREMENT OF SUBSTITUTE GOODS OR SERVICES; LOSS OF USE, DATA OR PROFITS; OR BUSINESS
    78                           ; INTERRUPTION) HOWSOEVER CAUSED AND ON ANY THEORY OF LIABILITY, WHETHER IN CONTRACT, ST
      +                          RICT
    79                           ; LIABILITY, OR TORT (INCLUDING NEGLIGENCE OR OTHERWISE) ARISING IN ANY WAY OUT OF THE U
      +                          SE OF
    80                           ; THIS SOFTWARE, EVEN IF ADVISED OF THE POSSIBILITY OF SUCH DAMAGE.
    81                           ; 
    82                           ; 
    83                           ; Code-generator required, PIC18F4520 Definitions
    84                           ; 
    85                           ; SFR Addresses
    86  0000                     
    87                           	psect	idataCOMRAM
    88  006BF1                     __pidataCOMRAM:
    89                           	callstack 0
    90                           
    91                           ;initializer for mensagemInvadida@F28
    92  006BF1  52                 	db	82
    93  006BF2  65                 	db	101
    94  006BF3  73                 	db	115
    95  006BF4  69                 	db	105
    96  006BF5  64                 	db	100
    97  006BF6  65                 	db	101
    98  006BF7  6E                 	db	110
    99  006BF8  63                 	db	99
   100  006BF9  69                 	db	105
   101  006BFA  61                 	db	97
   102  006BFB  20                 	db	32
   103  006BFC  49                 	db	73
   104  006BFD  6E                 	db	110
   105  006BFE  76                 	db	118
   106  006BFF  61                 	db	97
   107  006C00  64                 	db	100
   108  006C01  69                 	db	105
   109  006C02  64                 	db	100
   110  006C03  61                 	db	97
   111                           
   112                           ;initializer for mensagemDesarmada@F20
   113  006C04  43                 	db	67
   114  006C05  65                 	db	101
   115  006C06  6E                 	db	110
   116  006C07  74                 	db	116
   117  006C08  72                 	db	114
   118  006C09  61                 	db	97
   119  006C0A  6C                 	db	108
   120  006C0B  20                 	db	32
   121  006C0C  44                 	db	68
   122  006C0D  65                 	db	101
   123  006C0E  73                 	db	115
   124  006C0F  61                 	db	97
   125  006C10  72                 	db	114
   126  006C11  6D                 	db	109
   127  006C12  61                 	db	97
   128  006C13  64                 	db	100
   129  006C14  61                 	db	97
   130  006C15  00                 	db	0
   131                           
   132                           ;initializer for mensagemArmada@F24
   133  006C16  43                 	db	67
   134  006C17  65                 	db	101
   135  006C18  6E                 	db	110
   136  006C19  74                 	db	116
   137  006C1A  72                 	db	114
   138  006C1B  61                 	db	97
   139  006C1C  6C                 	db	108
   140  006C1D  20                 	db	32
   141  006C1E  41                 	db	65
   142  006C1F  72                 	db	114
   143  006C20  6D                 	db	109
   144  006C21  61                 	db	97
   145  006C22  64                 	db	100
   146  006C23  61                 	db	97
   147                           
   148                           	psect	idataBANK0
   149  006C5B                     __pidataBANK0:
   150                           	callstack 0
   151                           
   152                           ;initializer for mensagemInicial@F16
   153  006C5B  41                 	db	65
   154  006C5C  6C                 	db	108
   155  006C5D  61                 	db	97
   156  006C5E  72                 	db	114
   157  006C5F  6D                 	db	109
   158  006C60  65                 	db	101
   159  006C61  20                 	db	32
   160  006C62  44                 	db	68
   161  006C63  69                 	db	105
   162  006C64  67                 	db	103
   163  006C65  69                 	db	105
   164  006C66  74                 	db	116
   165  006C67  65                 	db	101
   166  006C68  3A                 	db	58
   167  006C69  20                 	db	32
   168  006C6A  31                 	db	49
   169  006C6B  28                 	db	40
   170  006C6C  41                 	db	65
   171  006C6D  72                 	db	114
   172  006C6E  6D                 	db	109
   173  006C6F  61                 	db	97
   174  006C70  72                 	db	114
   175  006C71  29                 	db	41
   176  006C72  20                 	db	32
   177  006C73  32                 	db	50
   178  006C74  28                 	db	40
   179  006C75  44                 	db	68
   180  006C76  65                 	db	101
   181  006C77  73                 	db	115
   182  006C78  61                 	db	97
   183  006C79  72                 	db	114
   184  006C7A  6D                 	db	109
   185  006C7B  61                 	db	97
   186  006C7C  72                 	db	114
   187  006C7D  29                 	db	41
   188                           
   189                           ;initializer for exceptArmado@F17
   190  006C7E  43                 	db	67
   191  006C7F  65                 	db	101
   192  006C80  6E                 	db	110
   193  006C81  74                 	db	116
   194  006C82  72                 	db	114
   195  006C83  61                 	db	97
   196  006C84  6C                 	db	108
   197  006C85  20                 	db	32
   198  006C86  6A                 	db	106
   199  006C87  61                 	db	97
   200  006C88  20                 	db	32
   201  006C89  61                 	db	97
   202  006C8A  72                 	db	114
   203  006C8B  6D                 	db	109
   204  006C8C  61                 	db	97
   205  006C8D  64                 	db	100
   206  006C8E  61                 	db	97
   207  006C8F  00                 	db	0
   208  006C90  00                 	db	0
   209  006C91  00                 	db	0
   210                           
   211                           ;initializer for exceptDesarmado@F13
   212  006C92  43                 	db	67
   213  006C93  65                 	db	101
   214  006C94  6E                 	db	110
   215  006C95  74                 	db	116
   216  006C96  72                 	db	114
   217  006C97  61                 	db	97
   218  006C98  6C                 	db	108
   219  006C99  20                 	db	32
   220  006C9A  6A                 	db	106
   221  006C9B  61                 	db	97
   222  006C9C  20                 	db	32
   223  006C9D  64                 	db	100
   224  006C9E  65                 	db	101
   225  006C9F  73                 	db	115
   226  006CA0  61                 	db	97
   227  006CA1  72                 	db	114
   228  006CA2  6D                 	db	109
   229  006CA3  61                 	db	97
   230  006CA4  64                 	db	100
   231  006CA5  61                 	db	97
   232  0000                     _PORTCbits	set	3970
   233  0000                     _ADCON1	set	4033
   234  0000                     _INTCON2	set	4081
   235  0000                     _TRISE	set	3990
   236  0000                     _TRISD	set	3989
   237  0000                     _TRISC	set	3988
   238  0000                     _TRISB	set	3987
   239  0000                     _TRISA	set	3986
   240  0000                     _PORTE	set	3972
   241  0000                     _PORTD	set	3971
   242  0000                     _PORTC	set	3970
   243  0000                     _PORTB	set	3969
   244  0000                     _PORTA	set	3968
   245                           
   246                           ; #config settings
   247                           
   248                           	psect	cinit
   249  006CFA                     __pcinit:
   250                           	callstack 0
   251  006CFA                     start_initialization:
   252                           	callstack 0
   253  006CFA                     __initialization:
   254                           	callstack 0
   255                           
   256                           ; Initialize objects allocated to BANK0 (75 bytes)
   257                           ; load TBLPTR registers with __pidataBANK0
   258  006CFA  0E5B               	movlw	low __pidataBANK0
   259  006CFC  6EF6               	movwf	tblptrl,c
   260  006CFE  0E6C               	movlw	high __pidataBANK0
   261  006D00  6EF7               	movwf	tblptrh,c
   262  006D02  0E00               	movlw	low (__pidataBANK0 shr (0+16))
   263  006D04  6EF8               	movwf	tblptru,c
   264  006D06  EE00  F080         	lfsr	0,__pdataBANK0
   265  006D0A  EE10 F04B          	lfsr	1,75
   266  006D0E                     copy_data0:
   267  006D0E  0009               	tblrd		*+
   268  006D10  CFF5 FFEE          	movff	tablat,postinc0
   269  006D14  50E5               	movf	postdec1,w,c
   270  006D16  50E1               	movf	fsr1l,w,c
   271  006D18  E1FA               	bnz	copy_data0
   272                           
   273                           ; Initialize objects allocated to COMRAM (51 bytes)
   274                           ; load TBLPTR registers with __pidataCOMRAM
   275  006D1A  0EF1               	movlw	low __pidataCOMRAM
   276  006D1C  6EF6               	movwf	tblptrl,c
   277  006D1E  0E6B               	movlw	high __pidataCOMRAM
   278  006D20  6EF7               	movwf	tblptrh,c
   279  006D22  0E00               	movlw	low (__pidataCOMRAM shr (0+16))
   280  006D24  6EF8               	movwf	tblptru,c
   281  006D26  EE00  F043         	lfsr	0,__pdataCOMRAM
   282  006D2A  EE10 F033          	lfsr	1,51
   283  006D2E                     copy_data1:
   284  006D2E  0009               	tblrd		*+
   285  006D30  CFF5 FFEE          	movff	tablat,postinc0
   286  006D34  50E5               	movf	postdec1,w,c
   287  006D36  50E1               	movf	fsr1l,w,c
   288  006D38  E1FA               	bnz	copy_data1
   289                           
   290                           ; Clear objects allocated to COMRAM (7 bytes)
   291  006D3A  EE00  F076         	lfsr	0,__pbssCOMRAM
   292  006D3E  0E07               	movlw	7
   293  006D40                     clear_0:
   294  006D40  6AEE               	clrf	postinc0,c
   295  006D42  06E8               	decf	wreg,f,c
   296  006D44  E1FD               	bnz	clear_0
   297  006D46                     end_of_initialization:
   298                           	callstack 0
   299  006D46                     __end_of__initialization:
   300                           	callstack 0
   301  006D46  0E00               	movlw	low (__Lmediumconst shr (0+16))
   302  006D48  6EF8               	movwf	tblptru,c
   303  006D4A  0100               	movlb	0
   304  006D4C  EFA6  F03C         	goto	_main	;jump to C main() function
   305                           
   306                           	psect	bssCOMRAM
   307  000076                     __pbssCOMRAM:
   308                           	callstack 0
   309  000076                     kpDebounce@valorAntigo:
   310                           	callstack 0
   311  000076                     	ds	2
   312  000078                     kpDebounce@valorNovo:
   313                           	callstack 0
   314  000078                     	ds	2
   315  00007A                     _valor:
   316                           	callstack 0
   317  00007A                     	ds	2
   318  00007C                     kpDebounce@tempo:
   319                           	callstack 0
   320  00007C                     	ds	1
   321                           
   322                           	psect	dataCOMRAM
   323  000043                     __pdataCOMRAM:
   324                           	callstack 0
   325  000043                     mensagemInvadida@F28:
   326                           	callstack 0
   327  000043                     	ds	19
   328  000056                     mensagemDesarmada@F20:
   329                           	callstack 0
   330  000056                     	ds	18
   331  000068                     mensagemArmada@F24:
   332                           	callstack 0
   333  000068                     	ds	14
   334                           
   335                           	psect	dataBANK0
   336  000080                     __pdataBANK0:
   337                           	callstack 0
   338  000080                     mensagemInicial@F16:
   339                           	callstack 0
   340  000080                     	ds	35
   341  0000A3                     exceptArmado@F17:
   342                           	callstack 0
   343  0000A3                     	ds	20
   344  0000B7                     exceptDesarmado@F13:
   345                           	callstack 0
   346  0000B7                     	ds	20
   347                           
   348                           	psect	cstackCOMRAM
   349  000001                     __pcstackCOMRAM:
   350                           	callstack 0
   351  000001                     ??_kpDebounce:
   352  000001                     ?_kpRead:
   353                           	callstack 0
   354  000001                     ?___wmul:
   355                           	callstack 0
   356  000001                     ?___lwdiv:
   357                           	callstack 0
   358  000001                     ?___aldiv:
   359                           	callstack 0
   360  000001                     Delay40us@i:
   361                           	callstack 0
   362  000001                     digitalWrite@pin:
   363                           	callstack 0
   364  000001                     pinMode@pin:
   365                           	callstack 0
   366  000001                     delay@valor:
   367                           	callstack 0
   368  000001                     ___wmul@multiplier:
   369                           	callstack 0
   370  000001                     ___lwdiv@dividend:
   371                           	callstack 0
   372  000001                     ___aldiv@dividend:
   373                           	callstack 0
   374                           
   375                           ; 4 bytes @ 0x0
   376  000001                     	ds	1
   377  000002                     Delay2ms@i:
   378                           	callstack 0
   379                           
   380                           ; 1 bytes @ 0x1
   381  000002                     	ds	1
   382  000003                     ??_delay:
   383  000003                     digitalWrite@value:
   384                           	callstack 0
   385  000003                     pinMode@type:
   386                           	callstack 0
   387  000003                     ___wmul@multiplicand:
   388                           	callstack 0
   389  000003                     ___lwdiv@divisor:
   390                           	callstack 0
   391                           
   392                           ; 2 bytes @ 0x2
   393  000003                     	ds	1
   394  000004                     delay@i:
   395                           	callstack 0
   396                           
   397                           ; 2 bytes @ 0x3
   398  000004                     	ds	1
   399  000005                     ??_digitalWrite:
   400  000005                     ??_pinMode:
   401  000005                     ___wmul@product:
   402                           	callstack 0
   403  000005                     ___lwdiv@quotient:
   404                           	callstack 0
   405  000005                     ___aldiv@divisor:
   406                           	callstack 0
   407                           
   408                           ; 4 bytes @ 0x4
   409  000005                     	ds	1
   410  000006                     kpDebounce@old_D:
   411                           	callstack 0
   412  000006                     delay@j:
   413                           	callstack 0
   414                           
   415                           ; 1 bytes @ 0x5
   416  000006                     	ds	1
   417  000007                     lcdCommand@old_D:
   418                           	callstack 0
   419  000007                     lcdData@valor:
   420                           	callstack 0
   421  000007                     ledDisparado@i:
   422                           	callstack 0
   423  000007                     ___lwdiv@counter:
   424                           	callstack 0
   425  000007                     kpDebounce@k:
   426                           	callstack 0
   427                           
   428                           ; 2 bytes @ 0x6
   429  000007                     	ds	1
   430  000008                     ??_pwmSet1:
   431  000008                     ??_pwmSet2:
   432  000008                     lcdCommand@cmd:
   433                           	callstack 0
   434  000008                     lcdData@old_D:
   435                           	callstack 0
   436                           
   437                           ; 1 bytes @ 0x7
   438  000008                     	ds	1
   439  000009                     kpDebounce@j:
   440                           	callstack 0
   441  000009                     lcdPosition@linha:
   442                           	callstack 0
   443  000009                     ___aldiv@counter:
   444                           	callstack 0
   445  000009                     mensagemInvadida@msg:
   446                           	callstack 0
   447  000009                     exceptDesarmado@mensage:
   448                           	callstack 0
   449  000009                     exceptArmado@mensage:
   450                           	callstack 0
   451                           
   452                           ; 20 bytes @ 0x8
   453  000009                     	ds	1
   454  00000A                     kpDebounce@i:
   455                           	callstack 0
   456  00000A                     pwmSet1@porcento:
   457                           	callstack 0
   458  00000A                     pwmSet2@porcento:
   459                           	callstack 0
   460  00000A                     lcdPosition@comando:
   461                           	callstack 0
   462  00000A                     ___aldiv@sign:
   463                           	callstack 0
   464                           
   465                           ; 1 bytes @ 0x9
   466  00000A                     	ds	1
   467  00000B                     lcdPosition@coluna:
   468                           	callstack 0
   469  00000B                     pwmSet1@val:
   470                           	callstack 0
   471  00000B                     pwmSet2@val:
   472                           	callstack 0
   473  00000B                     ___aldiv@quotient:
   474                           	callstack 0
   475                           
   476                           ; 4 bytes @ 0xA
   477  00000B                     	ds	1
   478  00000C                     mensagemArmada@msg:
   479                           	callstack 0
   480  00000C                     mensagemDesarmada@msg:
   481                           	callstack 0
   482  00000C                     mensagemInicial@msg:
   483                           	callstack 0
   484                           
   485                           ; 35 bytes @ 0xB
   486  00000C                     	ds	1
   487  00000D                     
   488                           ; 1 bytes @ 0xC
   489  00000D                     	ds	2
   490  00000F                     pwmFrequency@freq:
   491                           	callstack 0
   492                           
   493                           ; 2 bytes @ 0xE
   494  00000F                     	ds	2
   495  000011                     buzzerArmada@i:
   496                           	callstack 0
   497                           
   498                           ; 2 bytes @ 0x10
   499  000011                     	ds	9
   500  00001A                     mensagemArmada@i:
   501                           	callstack 0
   502                           
   503                           ; 2 bytes @ 0x19
   504  00001A                     	ds	2
   505  00001C                     armada@j:
   506                           	callstack 0
   507  00001C                     mensagemInvadida@i:
   508                           	callstack 0
   509                           
   510                           ; 2 bytes @ 0x1B
   511  00001C                     	ds	1
   512  00001D                     armada@temp:
   513                           	callstack 0
   514  00001D                     exceptDesarmado@i:
   515                           	callstack 0
   516  00001D                     exceptArmado@i:
   517                           	callstack 0
   518                           
   519                           ; 2 bytes @ 0x1C
   520  00001D                     	ds	1
   521  00001E                     armada@l:
   522                           	callstack 0
   523  00001E                     mensagemDesarmada@i:
   524                           	callstack 0
   525                           
   526                           ; 2 bytes @ 0x1D
   527  00001E                     	ds	2
   528  000020                     centralDesarmada@i:
   529                           	callstack 0
   530                           
   531                           ; 2 bytes @ 0x1F
   532  000020                     	ds	2
   533  000022                     centralDesarmada@j:
   534                           	callstack 0
   535                           
   536                           ; 1 bytes @ 0x21
   537  000022                     	ds	13
   538  00002F                     mensagemInicial@i:
   539                           	callstack 0
   540                           
   541                           ; 2 bytes @ 0x2E
   542  00002F                     	ds	2
   543  000031                     ??_main:
   544                           
   545                           ; 1 bytes @ 0x30
   546  000031                     	ds	2
   547  000033                     main@cont:
   548                           	callstack 0
   549                           
   550                           ; 2 bytes @ 0x32
   551  000033                     	ds	2
   552  000035                     main@valor:
   553                           	callstack 0
   554                           
   555                           ; 2 bytes @ 0x34
   556  000035                     	ds	2
   557  000037                     main@ver:
   558                           	callstack 0
   559                           
   560                           ; 2 bytes @ 0x36
   561  000037                     	ds	2
   562  000039                     main@verifica:
   563                           	callstack 0
   564                           
   565                           ; 2 bytes @ 0x38
   566  000039                     	ds	2
   567  00003B                     main@i:
   568                           	callstack 0
   569                           
   570                           ; 2 bytes @ 0x3A
   571  00003B                     	ds	2
   572  00003D                     main@lc:
   573                           	callstack 0
   574                           
   575                           ; 2 bytes @ 0x3C
   576  00003D                     	ds	2
   577  00003F                     main@op:
   578                           	callstack 0
   579                           
   580                           ; 2 bytes @ 0x3E
   581  00003F                     	ds	2
   582  000041                     main@ar:
   583                           	callstack 0
   584                           
   585                           ; 2 bytes @ 0x40
   586  000041                     	ds	2
   587                           
   588 ;;
   589 ;;Main: autosize = 0, tempsize = 2, incstack = 0, save=0
   590 ;;
   591 ;; *************** function _main *****************
   592 ;; Defined at:
   593 ;;		line 17 in file "main.c"
   594 ;; Parameters:    Size  Location     Type
   595 ;;		None
   596 ;; Auto vars:     Size  Location     Type
   597 ;;  ar              2   64[COMRAM] int 
   598 ;;  op              2   62[COMRAM] int 
   599 ;;  lc              2   60[COMRAM] int 
   600 ;;  i               2   58[COMRAM] int 
   601 ;;  verifica        2   56[COMRAM] unsigned int 
   602 ;;  ver             2   54[COMRAM] int 
   603 ;;  valor           2   52[COMRAM] int 
   604 ;;  cont            2   50[COMRAM] int 
   605 ;;  x               2    0        int 
   606 ;;  v               2    0        unsigned int 
   607 ;; Return value:  Size  Location     Type
   608 ;;                  1    wreg      void 
   609 ;; Registers used:
   610 ;;		wreg, fsr1l, fsr1h, fsr2l, fsr2h, status,2, status,0, prodl, prodh, cstack
   611 ;; Tracked objects:
   612 ;;		On entry : 0/0
   613 ;;		On exit  : 0/0
   614 ;;		Unchanged: 0/0
   615 ;; Data sizes:     COMRAM   BANK0   BANK1   BANK2   BANK3   BANK4   BANK5
   616 ;;      Params:         0       0       0       0       0       0       0
   617 ;;      Locals:        16       0       0       0       0       0       0
   618 ;;      Temps:          2       0       0       0       0       0       0
   619 ;;      Totals:        18       0       0       0       0       0       0
   620 ;;Total ram usage:       18 bytes
   621 ;; Hardware stack levels required when called: 6
   622 ;; This function calls:
   623 ;;		_armada
   624 ;;		_casaInvadida
   625 ;;		_centralDesarmada
   626 ;;		_cooler
   627 ;;		_exceptArmado
   628 ;;		_exceptDesarmado
   629 ;;		_kpDebounce
   630 ;;		_kpInit
   631 ;;		_kpRead
   632 ;;		_lcdCommand
   633 ;;		_mensagemInicial
   634 ;;		_pwmSet1
   635 ;; This function is called by:
   636 ;;		Startup code after reset
   637 ;; This function uses a non-reentrant model
   638 ;;
   639                           
   640                           	psect	text0
   641  00794C                     __ptext0:
   642                           	callstack 0
   643  00794C                     _main:
   644                           	callstack 25
   645  00794C                     
   646                           ;main.c: 19:     int i, op = 0, x = 1;
   647  00794C  0E00               	movlw	0
   648  00794E  6E40               	movwf	(main@op+1)^0,c
   649  007950  0E00               	movlw	0
   650  007952  6E3F               	movwf	main@op^0,c
   651                           
   652                           ;main.c: 20:     int cont = 0;
   653  007954  0E00               	movlw	0
   654  007956  6E34               	movwf	(main@cont+1)^0,c
   655  007958  0E00               	movlw	0
   656  00795A  6E33               	movwf	main@cont^0,c
   657                           
   658                           ;main.c: 21:     unsigned int verifica, v;;main.c: 22:     int valor = 0, ver =0, lc = 0
      +                          ;
   659  00795C  0E00               	movlw	0
   660  00795E  6E36               	movwf	(main@valor+1)^0,c
   661  007960  0E00               	movlw	0
   662  007962  6E35               	movwf	main@valor^0,c
   663  007964  0E00               	movlw	0
   664  007966  6E38               	movwf	(main@ver+1)^0,c
   665  007968  0E00               	movlw	0
   666  00796A  6E37               	movwf	main@ver^0,c
   667  00796C  0E00               	movlw	0
   668  00796E  6E3E               	movwf	(main@lc+1)^0,c
   669  007970  0E00               	movlw	0
   670  007972  6E3D               	movwf	main@lc^0,c
   671                           
   672                           ;main.c: 23:     int ar = 0;
   673  007974  0E00               	movlw	0
   674  007976  6E42               	movwf	(main@ar+1)^0,c
   675  007978  0E00               	movlw	0
   676  00797A  6E41               	movwf	main@ar^0,c
   677  00797C                     l2810:
   678                           
   679                           ;main.c: 28:         kpInit();
   680  00797C  EC6D  F035         	call	_kpInit	;wreg free
   681  007980                     
   682                           ;main.c: 31:         if(lc == 0){
   683  007980  503D               	movf	main@lc^0,w,c
   684  007982  103E               	iorwf	(main@lc+1)^0,w,c
   685  007984  A4D8               	btfss	status,2,c
   686  007986  EFC7  F03C         	goto	u2241
   687  00798A  EFC9  F03C         	goto	u2240
   688  00798E                     u2241:
   689  00798E  EFCF  F03C         	goto	l2818
   690  007992                     u2240:
   691  007992                     
   692                           ;main.c: 32:             mensagemInicial();
   693  007992  EC52  F039         	call	_mensagemInicial	;wreg free
   694  007996                     
   695                           ;main.c: 33:             lc = 1;
   696  007996  0E00               	movlw	0
   697  007998  6E3E               	movwf	(main@lc+1)^0,c
   698  00799A  0E01               	movlw	1
   699  00799C  6E3D               	movwf	main@lc^0,c
   700  00799E                     l2818:
   701                           
   702                           ;main.c: 38:             if(kpRead() != verifica){
   703  00799E  EC72  F035         	call	_kpRead	;wreg free
   704  0079A2  5039               	movf	main@verifica^0,w,c
   705  0079A4  1801               	xorwf	?_kpRead^0,w,c
   706  0079A6  E109               	bnz	u2250
   707  0079A8  503A               	movf	(main@verifica+1)^0,w,c
   708  0079AA  1802               	xorwf	(?_kpRead+1)^0,w,c
   709  0079AC  B4D8               	btfsc	status,2,c
   710  0079AE  EFDB  F03C         	goto	u2251
   711  0079B2  EFDD  F03C         	goto	u2250
   712  0079B6                     u2251:
   713  0079B6  EF39  F03D         	goto	l2842
   714  0079BA                     u2250:
   715  0079BA                     
   716                           ;main.c: 40:                 verifica = kpRead();
   717  0079BA  EC72  F035         	call	_kpRead	;wreg free
   718  0079BE  C001  F039         	movff	?_kpRead,main@verifica
   719  0079C2  C002  F03A         	movff	?_kpRead+1,main@verifica+1
   720                           
   721                           ;main.c: 42:                 if(((kpRead()) & (1<<(3)))){
   722  0079C6  EC72  F035         	call	_kpRead	;wreg free
   723  0079CA  A601               	btfss	?_kpRead^0,3,c
   724  0079CC  EFEA  F03C         	goto	u2261
   725  0079D0  EFEC  F03C         	goto	u2260
   726  0079D4                     u2261:
   727  0079D4  EF03  F03D         	goto	l2828
   728  0079D8                     u2260:
   729  0079D8                     
   730                           ;main.c: 43:                     if(ar != 1){
   731  0079D8  0441               	decf	main@ar^0,w,c
   732  0079DA  1042               	iorwf	(main@ar+1)^0,w,c
   733  0079DC  B4D8               	btfsc	status,2,c
   734  0079DE  EFF3  F03C         	goto	u2271
   735  0079E2  EFF5  F03C         	goto	u2270
   736  0079E6                     u2271:
   737  0079E6  EFFF  F03C         	goto	l2826
   738  0079EA                     u2270:
   739  0079EA                     
   740                           ;main.c: 44:                         op = 1;
   741  0079EA  0E00               	movlw	0
   742  0079EC  6E40               	movwf	(main@op+1)^0,c
   743  0079EE  0E01               	movlw	1
   744  0079F0  6E3F               	movwf	main@op^0,c
   745                           
   746                           ;main.c: 45:                         ar = 1;
   747  0079F2  0E00               	movlw	0
   748  0079F4  6E42               	movwf	(main@ar+1)^0,c
   749  0079F6  0E01               	movlw	1
   750  0079F8  6E41               	movwf	main@ar^0,c
   751                           
   752                           ;main.c: 46:                     }else{
   753  0079FA  EF03  F03D         	goto	l2828
   754  0079FE                     l2826:
   755                           
   756                           ;main.c: 47:                         op = 5;
   757  0079FE  0E00               	movlw	0
   758  007A00  6E40               	movwf	(main@op+1)^0,c
   759  007A02  0E05               	movlw	5
   760  007A04  6E3F               	movwf	main@op^0,c
   761  007A06                     l2828:
   762                           
   763                           ;main.c: 51:                 if(((kpRead()) & (1<<(7)))){
   764  007A06  EC72  F035         	call	_kpRead	;wreg free
   765  007A0A  AE01               	btfss	?_kpRead^0,7,c
   766  007A0C  EF0A  F03D         	goto	u2281
   767  007A10  EF0C  F03D         	goto	u2280
   768  007A14                     u2281:
   769  007A14  EF23  F03D         	goto	l2836
   770  007A18                     u2280:
   771  007A18                     
   772                           ;main.c: 52:                     if(ar == 1){
   773  007A18  0441               	decf	main@ar^0,w,c
   774  007A1A  1042               	iorwf	(main@ar+1)^0,w,c
   775  007A1C  A4D8               	btfss	status,2,c
   776  007A1E  EF13  F03D         	goto	u2291
   777  007A22  EF15  F03D         	goto	u2290
   778  007A26                     u2291:
   779  007A26  EF1F  F03D         	goto	l2834
   780  007A2A                     u2290:
   781  007A2A                     
   782                           ;main.c: 53:                         op = 2;
   783  007A2A  0E00               	movlw	0
   784  007A2C  6E40               	movwf	(main@op+1)^0,c
   785  007A2E  0E02               	movlw	2
   786  007A30  6E3F               	movwf	main@op^0,c
   787                           
   788                           ;main.c: 54:                         ar = 0;
   789  007A32  0E00               	movlw	0
   790  007A34  6E42               	movwf	(main@ar+1)^0,c
   791  007A36  0E00               	movlw	0
   792  007A38  6E41               	movwf	main@ar^0,c
   793                           
   794                           ;main.c: 55:                     }
   795  007A3A  EF23  F03D         	goto	l2836
   796  007A3E                     l2834:
   797                           
   798                           ;main.c: 57:                         op = 4;
   799  007A3E  0E00               	movlw	0
   800  007A40  6E40               	movwf	(main@op+1)^0,c
   801  007A42  0E04               	movlw	4
   802  007A44  6E3F               	movwf	main@op^0,c
   803  007A46                     l2836:
   804                           
   805                           ;main.c: 60:                 if(((kpRead()) & (1<<(11)))){
   806  007A46  EC72  F035         	call	_kpRead	;wreg free
   807  007A4A  A602               	btfss	(?_kpRead+1)^0,3,c
   808  007A4C  EF2A  F03D         	goto	u2301
   809  007A50  EF2C  F03D         	goto	u2300
   810  007A54                     u2301:
   811  007A54  EF39  F03D         	goto	l2842
   812  007A58                     u2300:
   813  007A58                     
   814                           ;main.c: 61:                     if(ar == 1){
   815  007A58  0441               	decf	main@ar^0,w,c
   816  007A5A  1042               	iorwf	(main@ar+1)^0,w,c
   817  007A5C  A4D8               	btfss	status,2,c
   818  007A5E  EF33  F03D         	goto	u2311
   819  007A62  EF35  F03D         	goto	u2310
   820  007A66                     u2311:
   821  007A66  EF39  F03D         	goto	l2842
   822  007A6A                     u2310:
   823  007A6A                     
   824                           ;main.c: 62:                         op = 3;
   825  007A6A  0E00               	movlw	0
   826  007A6C  6E40               	movwf	(main@op+1)^0,c
   827  007A6E  0E03               	movlw	3
   828  007A70  6E3F               	movwf	main@op^0,c
   829  007A72                     l2842:
   830                           
   831                           ;main.c: 66:              kpDebounce();
   832  007A72  ECE9  F03B         	call	_kpDebounce	;wreg free
   833                           
   834                           ;main.c: 68:              switch(op){
   835  007A76  EF8E  F03D         	goto	l2900
   836  007A7A                     l2844:
   837                           
   838                           ;main.c: 70:                     lcdCommand(0x01);
   839  007A7A  0E01               	movlw	1
   840  007A7C  ECC8  F038         	call	_lcdCommand
   841  007A80                     
   842                           ;main.c: 71:                     armada();
   843  007A80  EC54  F03B         	call	_armada	;wreg free
   844  007A84                     
   845                           ;main.c: 72:                     cooler();
   846  007A84  ECD0  F035         	call	_cooler	;wreg free
   847  007A88                     
   848                           ;main.c: 73:                     op = 0;
   849  007A88  0E00               	movlw	0
   850  007A8A  6E40               	movwf	(main@op+1)^0,c
   851  007A8C  0E00               	movlw	0
   852  007A8E  6E3F               	movwf	main@op^0,c
   853  007A90                     
   854                           ;main.c: 74:                     (*(volatile __near unsigned char*)0xFC1) = 0x00;
   855  007A90  0E00               	movlw	0
   856  007A92  6EC1               	movwf	193,c	;volatile
   857                           
   858                           ;main.c: 75:                     break;
   859  007A94  EFBE  F03C         	goto	l2810
   860  007A98                     l2854:
   861                           
   862                           ;main.c: 78:                     centralDesarmada();
   863  007A98  EC59  F03A         	call	_centralDesarmada	;wreg free
   864  007A9C                     
   865                           ;main.c: 79:                     op = 0;
   866  007A9C  0E00               	movlw	0
   867  007A9E  6E40               	movwf	(main@op+1)^0,c
   868  007AA0  0E00               	movlw	0
   869  007AA2  6E3F               	movwf	main@op^0,c
   870  007AA4                     
   871                           ;main.c: 80:                     (*(volatile __near unsigned char*)0xFC1) = 0x00;
   872  007AA4  0E00               	movlw	0
   873  007AA6  6EC1               	movwf	193,c	;volatile
   874  007AA8                     
   875                           ;main.c: 81:                     pwmSet1(0);
   876  007AA8  0E00               	movlw	0
   877  007AAA  EC67  F037         	call	_pwmSet1
   878  007AAE                     l2862:
   879                           
   880                           ;main.c: 82:                     lc = 0;
   881  007AAE  0E00               	movlw	0
   882  007AB0  6E3E               	movwf	(main@lc+1)^0,c
   883  007AB2  0E00               	movlw	0
   884  007AB4  6E3D               	movwf	main@lc^0,c
   885                           
   886                           ;main.c: 83:                     break;
   887  007AB6  EFBE  F03C         	goto	l2810
   888  007ABA                     l2864:
   889                           
   890                           ;main.c: 85:                     for( i = 0; i<20; i++){
   891  007ABA  0E00               	movlw	0
   892  007ABC  6E3C               	movwf	(main@i+1)^0,c
   893  007ABE  0E00               	movlw	0
   894  007AC0  6E3B               	movwf	main@i^0,c
   895  007AC2                     l2870:
   896                           
   897                           ;main.c: 86:                         casaInvadida();
   898  007AC2  EC9B  F035         	call	_casaInvadida	;wreg free
   899  007AC6                     
   900                           ;main.c: 87:                     }
   901  007AC6  4A3B               	infsnz	main@i^0,f,c
   902  007AC8  2A3C               	incf	(main@i+1)^0,f,c
   903  007ACA  BE3C               	btfsc	(main@i+1)^0,7,c
   904  007ACC  EF71  F03D         	goto	u2321
   905  007AD0  503C               	movf	(main@i+1)^0,w,c
   906  007AD2  E109               	bnz	u2320
   907  007AD4  0E14               	movlw	20
   908  007AD6  5C3B               	subwf	main@i^0,w,c
   909  007AD8  A0D8               	btfss	status,0,c
   910  007ADA  EF71  F03D         	goto	u2321
   911  007ADE  EF73  F03D         	goto	u2320
   912  007AE2                     u2321:
   913  007AE2  EF61  F03D         	goto	l2870
   914  007AE6                     u2320:
   915  007AE6                     
   916                           ;main.c: 89:                         (*(volatile __near unsigned char*)0xF82) = 0x00;
   917  007AE6  0E00               	movlw	0
   918  007AE8  6E82               	movwf	130,c	;volatile
   919                           
   920                           ;main.c: 91:                         (*(volatile __near unsigned char*)0xF84) = 0x00;
   921  007AEA  0E00               	movlw	0
   922  007AEC  6E84               	movwf	132,c	;volatile
   923  007AEE                     
   924                           ;main.c: 93:                     centralDesarmada();
   925  007AEE  EC59  F03A         	call	_centralDesarmada	;wreg free
   926  007AF2                     
   927                           ;main.c: 94:                     op = 0;
   928  007AF2  0E00               	movlw	0
   929  007AF4  6E40               	movwf	(main@op+1)^0,c
   930  007AF6  0E00               	movlw	0
   931  007AF8  6E3F               	movwf	main@op^0,c
   932  007AFA                     
   933                           ;main.c: 95:                     pwmSet1(0);
   934  007AFA  0E00               	movlw	0
   935  007AFC  EC67  F037         	call	_pwmSet1
   936  007B00  EF57  F03D         	goto	l2862
   937  007B04                     l2886:
   938                           
   939                           ;main.c: 99:                     exceptDesarmado();
   940  007B04  EC00  F03A         	call	_exceptDesarmado	;wreg free
   941  007B08                     l2888:
   942                           
   943                           ;main.c: 100:                     op = 0;
   944  007B08  0E00               	movlw	0
   945  007B0A  6E40               	movwf	(main@op+1)^0,c
   946  007B0C  0E00               	movlw	0
   947  007B0E  6E3F               	movwf	main@op^0,c
   948  007B10  EF57  F03D         	goto	l2862
   949  007B14                     l2892:
   950                           
   951                           ;main.c: 104:                     exceptArmado();
   952  007B14  ECA7  F039         	call	_exceptArmado	;wreg free
   953  007B18  EF84  F03D         	goto	l2888
   954  007B1C                     l2900:
   955  007B1C  C03F  F031         	movff	main@op,??_main
   956  007B20  C040  F032         	movff	main@op+1,??_main+1
   957                           
   958                           ; Switch on 2 bytes has been partitioned into a top level switch of size 1, and 1 sub-sw
      +                          itches
   959                           ; Switch size 1, requested type "simple"
   960                           ; Number of cases is 1, Range of values is 0 to 0
   961                           ; switch strategies available:
   962                           ; Name         Instructions Cycles
   963                           ; simple_byte            4     3 (average)
   964                           ;	Chosen strategy is simple_byte
   965  007B24  5032               	movf	(??_main+1)^0,w,c
   966  007B26  0A00               	xorlw	0	; case 0
   967  007B28  B4D8               	btfsc	status,2,c
   968  007B2A  EF99  F03D         	goto	l2910
   969  007B2E  EFBE  F03C         	goto	l2810
   970  007B32                     l2910:
   971                           
   972                           ; Switch size 1, requested type "simple"
   973                           ; Number of cases is 5, Range of values is 1 to 5
   974                           ; switch strategies available:
   975                           ; Name         Instructions Cycles
   976                           ; simple_byte           16     9 (average)
   977                           ;	Chosen strategy is simple_byte
   978  007B32  5031               	movf	??_main^0,w,c
   979  007B34  0A01               	xorlw	1	; case 1
   980  007B36  B4D8               	btfsc	status,2,c
   981  007B38  EF3D  F03D         	goto	l2844
   982  007B3C  0A03               	xorlw	3	; case 2
   983  007B3E  B4D8               	btfsc	status,2,c
   984  007B40  EF4C  F03D         	goto	l2854
   985  007B44  0A01               	xorlw	1	; case 3
   986  007B46  B4D8               	btfsc	status,2,c
   987  007B48  EF5D  F03D         	goto	l2864
   988  007B4C  0A07               	xorlw	7	; case 4
   989  007B4E  B4D8               	btfsc	status,2,c
   990  007B50  EF82  F03D         	goto	l2886
   991  007B54  0A01               	xorlw	1	; case 5
   992  007B56  B4D8               	btfsc	status,2,c
   993  007B58  EF8A  F03D         	goto	l2892
   994  007B5C  EFBE  F03C         	goto	l2810
   995  007B60  EF00  F000         	goto	start
   996  007B64                     __end_of_main:
   997                           	callstack 0
   998                           
   999 ;; *************** function _mensagemInicial *****************
  1000 ;; Defined at:
  1001 ;;		line 6 in file "printf.c"
  1002 ;; Parameters:    Size  Location     Type
  1003 ;;		None
  1004 ;; Auto vars:     Size  Location     Type
  1005 ;;  msg            35   11[COMRAM] unsigned char [35]
  1006 ;;  i               2   46[COMRAM] int 
  1007 ;; Return value:  Size  Location     Type
  1008 ;;                  1    wreg      void 
  1009 ;; Registers used:
  1010 ;;		wreg, fsr1l, fsr1h, fsr2l, fsr2h, status,2, status,0, cstack
  1011 ;; Tracked objects:
  1012 ;;		On entry : 0/0
  1013 ;;		On exit  : 0/0
  1014 ;;		Unchanged: 0/0
  1015 ;; Data sizes:     COMRAM   BANK0   BANK1   BANK2   BANK3   BANK4   BANK5
  1016 ;;      Params:         0       0       0       0       0       0       0
  1017 ;;      Locals:        37       0       0       0       0       0       0
  1018 ;;      Temps:          0       0       0       0       0       0       0
  1019 ;;      Totals:        37       0       0       0       0       0       0
  1020 ;;Total ram usage:       37 bytes
  1021 ;; Hardware stack levels used: 1
  1022 ;; Hardware stack levels required when called: 4
  1023 ;; This function calls:
  1024 ;;		_lcdCommand
  1025 ;;		_lcdData
  1026 ;;		_lcdInit
  1027 ;;		_lcdPosition
  1028 ;; This function is called by:
  1029 ;;		_main
  1030 ;; This function uses a non-reentrant model
  1031 ;;
  1032                           
  1033                           	psect	text1
  1034  0072A4                     __ptext1:
  1035                           	callstack 0
  1036  0072A4                     _mensagemInicial:
  1037                           	callstack 26
  1038  0072A4                     
  1039                           ;printf.c: 8:     int i;;printf.c: 11:      char msg[35] = "Alarme Digite: 1(Armar) 2(De
      +                          sarmar)";
  1040  0072A4  EE20  F080         	lfsr	2,mensagemInicial@F16
  1041  0072A8  EE10  F00C         	lfsr	1,mensagemInicial@msg
  1042  0072AC  0E22               	movlw	34
  1043  0072AE                     u2011:
  1044  0072AE  CFDB FFE3          	movff	plusw2,plusw1
  1045  0072B2  06E8               	decf	wreg,f,c
  1046  0072B4  E2FC               	bc	u2011
  1047  0072B6                     
  1048                           ;printf.c: 14:     lcdInit();
  1049  0072B6  EC10  F038         	call	_lcdInit	;wreg free
  1050  0072BA                     
  1051                           ;printf.c: 17:         lcdPosition(0, 0);
  1052  0072BA  0E00               	movlw	0
  1053  0072BC  6E09               	movwf	lcdPosition@linha^0,c
  1054  0072BE  0E00               	movlw	0
  1055  0072C0  EC07  F039         	call	_lcdPosition
  1056  0072C4                     
  1057                           ;printf.c: 18:         for (i = 0; i < 35; i++) {
  1058  0072C4  0E00               	movlw	0
  1059  0072C6  6E30               	movwf	(mensagemInicial@i+1)^0,c
  1060  0072C8  0E00               	movlw	0
  1061  0072CA  6E2F               	movwf	mensagemInicial@i^0,c
  1062  0072CC                     l2524:
  1063                           
  1064                           ;printf.c: 19:             lcdData(msg[i]);
  1065  0072CC  0E0C               	movlw	low mensagemInicial@msg
  1066  0072CE  242F               	addwf	mensagemInicial@i^0,w,c
  1067  0072D0  6ED9               	movwf	fsr2l,c
  1068  0072D2  0E00               	movlw	high mensagemInicial@msg
  1069  0072D4  2030               	addwfc	(mensagemInicial@i+1)^0,w,c
  1070  0072D6  6EDA               	movwf	fsr2h,c
  1071  0072D8  50DF               	movf	indf2,w,c
  1072  0072DA  EC53  F036         	call	_lcdData
  1073  0072DE                     
  1074                           ;printf.c: 20:         if(i==6){
  1075  0072DE  0E06               	movlw	6
  1076  0072E0  182F               	xorwf	mensagemInicial@i^0,w,c
  1077  0072E2  1030               	iorwf	(mensagemInicial@i+1)^0,w,c
  1078  0072E4  A4D8               	btfss	status,2,c
  1079  0072E6  EF77  F039         	goto	u2021
  1080  0072EA  EF79  F039         	goto	u2020
  1081  0072EE                     u2021:
  1082  0072EE  EF7C  F039         	goto	l2530
  1083  0072F2                     u2020:
  1084  0072F2                     
  1085                           ;printf.c: 21:             lcdCommand(0xC0);
  1086  0072F2  0EC0               	movlw	192
  1087  0072F4  ECC8  F038         	call	_lcdCommand
  1088  0072F8                     l2530:
  1089                           
  1090                           ;printf.c: 23:         if(i==14){
  1091  0072F8  0E0E               	movlw	14
  1092  0072FA  182F               	xorwf	mensagemInicial@i^0,w,c
  1093  0072FC  1030               	iorwf	(mensagemInicial@i+1)^0,w,c
  1094  0072FE  A4D8               	btfss	status,2,c
  1095  007300  EF84  F039         	goto	u2031
  1096  007304  EF86  F039         	goto	u2030
  1097  007308                     u2031:
  1098  007308  EF89  F039         	goto	l2534
  1099  00730C                     u2030:
  1100  00730C                     
  1101                           ;printf.c: 24:             lcdCommand(0x92);
  1102  00730C  0E92               	movlw	146
  1103  00730E  ECC8  F038         	call	_lcdCommand
  1104  007312                     l2534:
  1105                           
  1106                           ;printf.c: 26:         if(i==23){
  1107  007312  0E17               	movlw	23
  1108  007314  182F               	xorwf	mensagemInicial@i^0,w,c
  1109  007316  1030               	iorwf	(mensagemInicial@i+1)^0,w,c
  1110  007318  A4D8               	btfss	status,2,c
  1111  00731A  EF91  F039         	goto	u2041
  1112  00731E  EF93  F039         	goto	u2040
  1113  007322                     u2041:
  1114  007322  EF96  F039         	goto	l2538
  1115  007326                     u2040:
  1116  007326                     
  1117                           ;printf.c: 27:             lcdCommand(0xD2);
  1118  007326  0ED2               	movlw	210
  1119  007328  ECC8  F038         	call	_lcdCommand
  1120  00732C                     l2538:
  1121                           
  1122                           ;printf.c: 29:     }
  1123  00732C  4A2F               	infsnz	mensagemInicial@i^0,f,c
  1124  00732E  2A30               	incf	(mensagemInicial@i+1)^0,f,c
  1125  007330  BE30               	btfsc	(mensagemInicial@i+1)^0,7,c
  1126  007332  EFA4  F039         	goto	u2051
  1127  007336  5030               	movf	(mensagemInicial@i+1)^0,w,c
  1128  007338  E109               	bnz	u2050
  1129  00733A  0E23               	movlw	35
  1130  00733C  5C2F               	subwf	mensagemInicial@i^0,w,c
  1131  00733E  A0D8               	btfss	status,0,c
  1132  007340  EFA4  F039         	goto	u2051
  1133  007344  EFA6  F039         	goto	u2050
  1134  007348                     u2051:
  1135  007348  EF66  F039         	goto	l2524
  1136  00734C                     u2050:
  1137  00734C  0012               	return		;funcret
  1138  00734E                     __end_of_mensagemInicial:
  1139                           	callstack 0
  1140                           
  1141 ;; *************** function _kpRead *****************
  1142 ;; Defined at:
  1143 ;;		line 35 in file "keypad.c"
  1144 ;; Parameters:    Size  Location     Type
  1145 ;;		None
  1146 ;; Auto vars:     Size  Location     Type
  1147 ;;		None
  1148 ;; Return value:  Size  Location     Type
  1149 ;;                  2    0[COMRAM] unsigned int 
  1150 ;; Registers used:
  1151 ;;		None
  1152 ;; Tracked objects:
  1153 ;;		On entry : 0/0
  1154 ;;		On exit  : 0/0
  1155 ;;		Unchanged: 0/0
  1156 ;; Data sizes:     COMRAM   BANK0   BANK1   BANK2   BANK3   BANK4   BANK5
  1157 ;;      Params:         2       0       0       0       0       0       0
  1158 ;;      Locals:         0       0       0       0       0       0       0
  1159 ;;      Temps:          0       0       0       0       0       0       0
  1160 ;;      Totals:         2       0       0       0       0       0       0
  1161 ;;Total ram usage:        2 bytes
  1162 ;; Hardware stack levels used: 1
  1163 ;; This function calls:
  1164 ;;		Nothing
  1165 ;; This function is called by:
  1166 ;;		_main
  1167 ;; This function uses a non-reentrant model
  1168 ;;
  1169                           
  1170                           	psect	text2
  1171  006AE4                     __ptext2:
  1172                           	callstack 0
  1173  006AE4                     _kpRead:
  1174                           	callstack 30
  1175  006AE4                     
  1176                           ;keypad.c: 36:     return valor;
  1177  006AE4  C07A  F001         	movff	_valor,?_kpRead
  1178  006AE8  C07B  F002         	movff	_valor+1,?_kpRead+1
  1179  006AEC  0012               	return		;funcret
  1180  006AEE                     __end_of_kpRead:
  1181                           	callstack 0
  1182                           
  1183 ;; *************** function _kpInit *****************
  1184 ;; Defined at:
  1185 ;;		line 87 in file "keypad.c"
  1186 ;; Parameters:    Size  Location     Type
  1187 ;;		None
  1188 ;; Auto vars:     Size  Location     Type
  1189 ;;		None
  1190 ;; Return value:  Size  Location     Type
  1191 ;;                  1    wreg      void 
  1192 ;; Registers used:
  1193 ;;		wreg, status,2, status,0
  1194 ;; Tracked objects:
  1195 ;;		On entry : 0/0
  1196 ;;		On exit  : 0/0
  1197 ;;		Unchanged: 0/0
  1198 ;; Data sizes:     COMRAM   BANK0   BANK1   BANK2   BANK3   BANK4   BANK5
  1199 ;;      Params:         0       0       0       0       0       0       0
  1200 ;;      Locals:         0       0       0       0       0       0       0
  1201 ;;      Temps:          0       0       0       0       0       0       0
  1202 ;;      Totals:         0       0       0       0       0       0       0
  1203 ;;Total ram usage:        0 bytes
  1204 ;; Hardware stack levels used: 1
  1205 ;; This function calls:
  1206 ;;		Nothing
  1207 ;; This function is called by:
  1208 ;;		_main
  1209 ;; This function uses a non-reentrant model
  1210 ;;
  1211                           
  1212                           	psect	text3
  1213  006ADA                     __ptext3:
  1214                           	callstack 0
  1215  006ADA                     _kpInit:
  1216                           	callstack 30
  1217  006ADA                     
  1218                           ;keypad.c: 89:     TRISB &= 0x07;
  1219  006ADA  0E07               	movlw	7
  1220  006ADC  1693               	andwf	147,f,c	;volatile
  1221                           
  1222                           ;keypad.c: 91:     TRISD |= 0x0f;
  1223  006ADE  0E0F               	movlw	15
  1224  006AE0  1295               	iorwf	149,f,c	;volatile
  1225  006AE2  0012               	return		;funcret
  1226  006AE4                     __end_of_kpInit:
  1227                           	callstack 0
  1228                           
  1229 ;; *************** function _kpDebounce *****************
  1230 ;; Defined at:
  1231 ;;		line 39 in file "keypad.c"
  1232 ;; Parameters:    Size  Location     Type
  1233 ;;		None
  1234 ;; Auto vars:     Size  Location     Type
  1235 ;;  k               2    6[COMRAM] int 
  1236 ;;  i               1    9[COMRAM] unsigned char 
  1237 ;;  j               1    8[COMRAM] unsigned char 
  1238 ;;  old_D           1    5[COMRAM] unsigned char 
  1239 ;; Return value:  Size  Location     Type
  1240 ;;                  1    wreg      void 
  1241 ;; Registers used:
  1242 ;;		wreg, status,2, status,0, prodl, prodh
  1243 ;; Tracked objects:
  1244 ;;		On entry : 0/0
  1245 ;;		On exit  : 0/0
  1246 ;;		Unchanged: 0/0
  1247 ;; Data sizes:     COMRAM   BANK0   BANK1   BANK2   BANK3   BANK4   BANK5
  1248 ;;      Params:         0       0       0       0       0       0       0
  1249 ;;      Locals:         5       0       0       0       0       0       0
  1250 ;;      Temps:          5       0       0       0       0       0       0
  1251 ;;      Totals:        10       0       0       0       0       0       0
  1252 ;;Total ram usage:       10 bytes
  1253 ;; Hardware stack levels used: 1
  1254 ;; This function calls:
  1255 ;;		Nothing
  1256 ;; This function is called by:
  1257 ;;		_main
  1258 ;; This function uses a non-reentrant model
  1259 ;;
  1260                           
  1261                           	psect	text4
  1262  0077D2                     __ptext4:
  1263                           	callstack 0
  1264  0077D2                     _kpDebounce:
  1265                           	callstack 30
  1266  0077D2                     
  1267                           ;keypad.c: 40:     unsigned char i, j;;keypad.c: 41:     static unsigned char tempo;;key
      +                          pad.c: 42:     static unsigned int valorNovo = 0x0000;;keypad.c: 43:     static unsigned
      +                           int valorAntigo = 0x0000;;keypad.c: 46:     unsigned char old_D;;keypad.c: 47:     old_
      +                          D = PORTD;
  1268  0077D2  CF83 F006          	movff	3971,kpDebounce@old_D	;volatile
  1269  0077D6                     
  1270                           ;keypad.c: 51:     TRISD |= 0x0f;
  1271  0077D6  0E0F               	movlw	15
  1272  0077D8  1295               	iorwf	149,f,c	;volatile
  1273  0077DA                     
  1274                           ;keypad.c: 53:     for (i = 0; i < 3; i++) {
  1275  0077DA  0E00               	movlw	0
  1276  0077DC  6E0A               	movwf	kpDebounce@i^0,c
  1277  0077DE                     l1566:
  1278                           
  1279                           ;keypad.c: 55:         TRISB &= 0xF8;
  1280  0077DE  0EF8               	movlw	248
  1281  0077E0  1693               	andwf	147,f,c	;volatile
  1282                           
  1283                           ;keypad.c: 57:         ((TRISB) |= (1<<(i)));
  1284  0077E2  C00A  F001         	movff	kpDebounce@i,??_kpDebounce
  1285  0077E6  0E01               	movlw	1
  1286  0077E8  6E02               	movwf	(??_kpDebounce+1)^0,c
  1287  0077EA  2A01               	incf	??_kpDebounce^0,f,c
  1288  0077EC  EFFA  F03B         	goto	u754
  1289  0077F0                     u755:
  1290  0077F0  90D8               	bcf	status,0,c
  1291  0077F2  3602               	rlcf	(??_kpDebounce+1)^0,f,c
  1292  0077F4                     u754:
  1293  0077F4  2E01               	decfsz	??_kpDebounce^0,f,c
  1294  0077F6  EFF8  F03B         	goto	u755
  1295  0077FA  5002               	movf	(??_kpDebounce+1)^0,w,c
  1296  0077FC  1293               	iorwf	147,f,c	;volatile
  1297                           
  1298                           ;keypad.c: 59:         PORTB |= 0x07;
  1299  0077FE  0E07               	movlw	7
  1300  007800  1281               	iorwf	129,f,c	;volatile
  1301                           
  1302                           ;keypad.c: 60:         ((PORTB) &= ~(1<<(i)));
  1303  007802  C00A  F001         	movff	kpDebounce@i,??_kpDebounce
  1304  007806  0E01               	movlw	1
  1305  007808  6E02               	movwf	(??_kpDebounce+1)^0,c
  1306  00780A  2A01               	incf	??_kpDebounce^0,f,c
  1307  00780C  EF0A  F03C         	goto	u764
  1308  007810                     u765:
  1309  007810  90D8               	bcf	status,0,c
  1310  007812  3602               	rlcf	(??_kpDebounce+1)^0,f,c
  1311  007814                     u764:
  1312  007814  2E01               	decfsz	??_kpDebounce^0,f,c
  1313  007816  EF08  F03C         	goto	u765
  1314  00781A  5002               	movf	(??_kpDebounce+1)^0,w,c
  1315  00781C  0AFF               	xorlw	255
  1316  00781E  1681               	andwf	129,f,c	;volatile
  1317  007820                     
  1318                           ;keypad.c: 63:         for (int k = 0; k < 10; k++);
  1319  007820  0E00               	movlw	0
  1320  007822  6E08               	movwf	(kpDebounce@k+1)^0,c
  1321  007824  0E00               	movlw	0
  1322  007826  6E07               	movwf	kpDebounce@k^0,c
  1323  007828                     l1574:
  1324  007828  4A07               	infsnz	kpDebounce@k^0,f,c
  1325  00782A  2A08               	incf	(kpDebounce@k+1)^0,f,c
  1326  00782C  BE08               	btfsc	(kpDebounce@k+1)^0,7,c
  1327  00782E  EF22  F03C         	goto	u771
  1328  007832  5008               	movf	(kpDebounce@k+1)^0,w,c
  1329  007834  E109               	bnz	u770
  1330  007836  0E0A               	movlw	10
  1331  007838  5C07               	subwf	kpDebounce@k^0,w,c
  1332  00783A  A0D8               	btfss	status,0,c
  1333  00783C  EF22  F03C         	goto	u771
  1334  007840  EF24  F03C         	goto	u770
  1335  007844                     u771:
  1336  007844  EF14  F03C         	goto	l1574
  1337  007848                     u770:
  1338  007848                     
  1339                           ;keypad.c: 66:         for (j = 0; j < 4; j++) {
  1340  007848  0E00               	movlw	0
  1341  00784A  6E09               	movwf	kpDebounce@j^0,c
  1342  00784C                     l1584:
  1343                           
  1344                           ;keypad.c: 67:             if (!((PORTD) & (1<<(j)))) {
  1345  00784C  C009  F001         	movff	kpDebounce@j,??_kpDebounce
  1346  007850  0E01               	movlw	1
  1347  007852  6E02               	movwf	(??_kpDebounce+1)^0,c
  1348  007854  2A01               	incf	??_kpDebounce^0,f,c
  1349  007856  EF2F  F03C         	goto	u784
  1350  00785A                     u785:
  1351  00785A  90D8               	bcf	status,0,c
  1352  00785C  3602               	rlcf	(??_kpDebounce+1)^0,f,c
  1353  00785E                     u784:
  1354  00785E  2E01               	decfsz	??_kpDebounce^0,f,c
  1355  007860  EF2D  F03C         	goto	u785
  1356  007864  5002               	movf	(??_kpDebounce+1)^0,w,c
  1357  007866  1483               	andwf	131,w,c	;volatile
  1358  007868  0900               	iorlw	0
  1359  00786A  A4D8               	btfss	status,2,c
  1360  00786C  EF3A  F03C         	goto	u791
  1361  007870  EF3C  F03C         	goto	u790
  1362  007874                     u791:
  1363  007874  EF54  F03C         	goto	l1588
  1364  007878                     u790:
  1365  007878                     
  1366                           ;keypad.c: 68:                 ((valorNovo) |= (1<<((i * 4) + j)));
  1367  007878  500A               	movf	kpDebounce@i^0,w,c
  1368  00787A  0D04               	mullw	4
  1369  00787C  50F3               	movf	243,w,c
  1370  00787E  2409               	addwf	kpDebounce@j^0,w,c
  1371  007880  6E01               	movwf	??_kpDebounce^0,c
  1372  007882  0E01               	movlw	1
  1373  007884  6E02               	movwf	(??_kpDebounce+1)^0,c
  1374  007886  0E00               	movlw	0
  1375  007888  6E03               	movwf	(??_kpDebounce+2)^0,c
  1376  00788A  2A01               	incf	??_kpDebounce^0,f,c
  1377  00788C  EF4B  F03C         	goto	u804
  1378  007890                     u805:
  1379  007890  90D8               	bcf	status,0,c
  1380  007892  3602               	rlcf	(??_kpDebounce+1)^0,f,c
  1381  007894  3603               	rlcf	(??_kpDebounce+2)^0,f,c
  1382  007896                     u804:
  1383  007896  2E01               	decfsz	??_kpDebounce^0,f,c
  1384  007898  EF48  F03C         	goto	u805
  1385  00789C  5002               	movf	(??_kpDebounce+1)^0,w,c
  1386  00789E  1278               	iorwf	kpDebounce@valorNovo^0,f,c
  1387  0078A0  5003               	movf	(??_kpDebounce+2)^0,w,c
  1388  0078A2  1279               	iorwf	(kpDebounce@valorNovo+1)^0,f,c
  1389                           
  1390                           ;keypad.c: 69:             } else {
  1391  0078A4  EF6E  F03C         	goto	l1590
  1392  0078A8                     l1588:
  1393                           
  1394                           ;keypad.c: 70:                 ((valorNovo) &= ~(1<<((i * 4) + j)));
  1395  0078A8  500A               	movf	kpDebounce@i^0,w,c
  1396  0078AA  0D04               	mullw	4
  1397  0078AC  50F3               	movf	243,w,c
  1398  0078AE  2409               	addwf	kpDebounce@j^0,w,c
  1399  0078B0  6E01               	movwf	??_kpDebounce^0,c
  1400  0078B2  0E01               	movlw	1
  1401  0078B4  6E02               	movwf	(??_kpDebounce+1)^0,c
  1402  0078B6  0E00               	movlw	0
  1403  0078B8  6E03               	movwf	(??_kpDebounce+2)^0,c
  1404  0078BA  2A01               	incf	??_kpDebounce^0,f,c
  1405  0078BC  EF63  F03C         	goto	u814
  1406  0078C0                     u815:
  1407  0078C0  90D8               	bcf	status,0,c
  1408  0078C2  3602               	rlcf	(??_kpDebounce+1)^0,f,c
  1409  0078C4  3603               	rlcf	(??_kpDebounce+2)^0,f,c
  1410  0078C6                     u814:
  1411  0078C6  2E01               	decfsz	??_kpDebounce^0,f,c
  1412  0078C8  EF60  F03C         	goto	u815
  1413  0078CC  1C02               	comf	(??_kpDebounce+1)^0,w,c
  1414  0078CE  6E04               	movwf	(??_kpDebounce+3)^0,c
  1415  0078D0  1C03               	comf	(??_kpDebounce+2)^0,w,c
  1416  0078D2  6E05               	movwf	(??_kpDebounce+4)^0,c
  1417  0078D4  5004               	movf	(??_kpDebounce+3)^0,w,c
  1418  0078D6  1678               	andwf	kpDebounce@valorNovo^0,f,c
  1419  0078D8  5005               	movf	(??_kpDebounce+4)^0,w,c
  1420  0078DA  1679               	andwf	(kpDebounce@valorNovo+1)^0,f,c
  1421  0078DC                     l1590:
  1422                           
  1423                           ;keypad.c: 72:         }
  1424  0078DC  2A09               	incf	kpDebounce@j^0,f,c
  1425  0078DE  0E03               	movlw	3
  1426  0078E0  6409               	cpfsgt	kpDebounce@j^0,c
  1427  0078E2  EF75  F03C         	goto	u821
  1428  0078E6  EF77  F03C         	goto	u820
  1429  0078EA                     u821:
  1430  0078EA  EF26  F03C         	goto	l1584
  1431  0078EE                     u820:
  1432  0078EE                     
  1433                           ;keypad.c: 73:     }
  1434  0078EE  2A0A               	incf	kpDebounce@i^0,f,c
  1435  0078F0  0E02               	movlw	2
  1436  0078F2  640A               	cpfsgt	kpDebounce@i^0,c
  1437  0078F4  EF7E  F03C         	goto	u831
  1438  0078F8  EF80  F03C         	goto	u830
  1439  0078FC                     u831:
  1440  0078FC  EFEF  F03B         	goto	l1566
  1441  007900                     u830:
  1442  007900                     
  1443                           ;keypad.c: 74:     if (valorAntigo == valorNovo) {
  1444  007900  5078               	movf	kpDebounce@valorNovo^0,w,c
  1445  007902  1876               	xorwf	kpDebounce@valorAntigo^0,w,c
  1446  007904  E107               	bnz	u841
  1447  007906  5079               	movf	(kpDebounce@valorNovo+1)^0,w,c
  1448  007908  1877               	xorwf	(kpDebounce@valorAntigo+1)^0,w,c
  1449  00790A  A4D8               	btfss	status,2,c
  1450  00790C  EF8A  F03C         	goto	u841
  1451  007910  EF8C  F03C         	goto	u840
  1452  007914                     u841:
  1453  007914  EF8F  F03C         	goto	l1602
  1454  007918                     u840:
  1455  007918                     
  1456                           ;keypad.c: 75:         tempo--;
  1457  007918  067C               	decf	kpDebounce@tempo^0,f,c
  1458                           
  1459                           ;keypad.c: 76:     } else {
  1460  00791A  EF95  F03C         	goto	l138
  1461  00791E                     l1602:
  1462                           
  1463                           ;keypad.c: 77:         tempo = 10;
  1464  00791E  0E0A               	movlw	10
  1465  007920  6E7C               	movwf	kpDebounce@tempo^0,c
  1466  007922                     
  1467                           ;keypad.c: 78:         valorAntigo = valorNovo;
  1468  007922  C078  F076         	movff	kpDebounce@valorNovo,kpDebounce@valorAntigo
  1469  007926  C079  F077         	movff	kpDebounce@valorNovo+1,kpDebounce@valorAntigo+1
  1470  00792A                     l138:
  1471                           
  1472                           ;keypad.c: 80:     if (tempo == 0) {
  1473  00792A  507C               	movf	kpDebounce@tempo^0,w,c
  1474  00792C  A4D8               	btfss	status,2,c
  1475  00792E  EF9B  F03C         	goto	u851
  1476  007932  EF9D  F03C         	goto	u850
  1477  007936                     u851:
  1478  007936  EFA1  F03C         	goto	l139
  1479  00793A                     u850:
  1480  00793A                     
  1481                           ;keypad.c: 81:         valor = valorAntigo;
  1482  00793A  C076  F07A         	movff	kpDebounce@valorAntigo,_valor
  1483  00793E  C077  F07B         	movff	kpDebounce@valorAntigo+1,_valor+1
  1484  007942                     l139:
  1485                           
  1486                           ;keypad.c: 83:     PORTD = old_D;
  1487  007942  C006  FF83         	movff	kpDebounce@old_D,3971	;volatile
  1488  007946                     
  1489                           ;keypad.c: 84:     TRISD = 0x00;
  1490  007946  0E00               	movlw	0
  1491  007948  6E95               	movwf	149,c	;volatile
  1492  00794A  0012               	return		;funcret
  1493  00794C                     __end_of_kpDebounce:
  1494                           	callstack 0
  1495                           
  1496 ;; *************** function _exceptDesarmado *****************
  1497 ;; Defined at:
  1498 ;;		line 7 in file "except.c"
  1499 ;; Parameters:    Size  Location     Type
  1500 ;;		None
  1501 ;; Auto vars:     Size  Location     Type
  1502 ;;  mensage        20    8[COMRAM] unsigned char [20]
  1503 ;;  i               2   28[COMRAM] int 
  1504 ;; Return value:  Size  Location     Type
  1505 ;;                  1    wreg      void 
  1506 ;; Registers used:
  1507 ;;		wreg, fsr1l, fsr1h, fsr2l, fsr2h, status,2, status,0, cstack
  1508 ;; Tracked objects:
  1509 ;;		On entry : 0/0
  1510 ;;		On exit  : 0/0
  1511 ;;		Unchanged: 0/0
  1512 ;; Data sizes:     COMRAM   BANK0   BANK1   BANK2   BANK3   BANK4   BANK5
  1513 ;;      Params:         0       0       0       0       0       0       0
  1514 ;;      Locals:        22       0       0       0       0       0       0
  1515 ;;      Temps:          0       0       0       0       0       0       0
  1516 ;;      Totals:        22       0       0       0       0       0       0
  1517 ;;Total ram usage:       22 bytes
  1518 ;; Hardware stack levels used: 1
  1519 ;; Hardware stack levels required when called: 4
  1520 ;; This function calls:
  1521 ;;		_delay
  1522 ;;		_lcdCommand
  1523 ;;		_lcdData
  1524 ;;		_lcdInit
  1525 ;; This function is called by:
  1526 ;;		_main
  1527 ;; This function uses a non-reentrant model
  1528 ;;
  1529                           
  1530                           	psect	text5
  1531  007400                     __ptext5:
  1532                           	callstack 0
  1533  007400                     _exceptDesarmado:
  1534                           	callstack 26
  1535  007400                     
  1536                           ;except.c: 8:     int i;;except.c: 9:     char mensage[20]= "Central ja desarmada";
  1537  007400  EE20  F0B7         	lfsr	2,exceptDesarmado@F13
  1538  007404  EE10  F009         	lfsr	1,exceptDesarmado@mensage
  1539  007408  0E13               	movlw	19
  1540  00740A                     u2161:
  1541  00740A  CFDB FFE3          	movff	plusw2,plusw1
  1542  00740E  06E8               	decf	wreg,f,c
  1543  007410  E2FC               	bc	u2161
  1544  007412                     
  1545                           ;except.c: 10:     lcdInit();
  1546  007412  EC10  F038         	call	_lcdInit	;wreg free
  1547  007416                     
  1548                           ;except.c: 12:     lcdCommand(0x01);
  1549  007416  0E01               	movlw	1
  1550  007418  ECC8  F038         	call	_lcdCommand
  1551  00741C                     
  1552                           ;except.c: 13:     lcdCommand(0x85);
  1553  00741C  0E85               	movlw	133
  1554  00741E  ECC8  F038         	call	_lcdCommand
  1555  007422                     
  1556                           ;except.c: 14:     for(i = 0; i<20; i++){
  1557  007422  0E00               	movlw	0
  1558  007424  6E1E               	movwf	(exceptDesarmado@i+1)^0,c
  1559  007426  0E00               	movlw	0
  1560  007428  6E1D               	movwf	exceptDesarmado@i^0,c
  1561  00742A                     l2746:
  1562                           
  1563                           ;except.c: 15:         if(i == 8){
  1564  00742A  0E08               	movlw	8
  1565  00742C  181D               	xorwf	exceptDesarmado@i^0,w,c
  1566  00742E  101E               	iorwf	(exceptDesarmado@i+1)^0,w,c
  1567  007430  A4D8               	btfss	status,2,c
  1568  007432  EF1D  F03A         	goto	u2171
  1569  007436  EF1F  F03A         	goto	u2170
  1570  00743A                     u2171:
  1571  00743A  EF22  F03A         	goto	l2750
  1572  00743E                     u2170:
  1573  00743E                     
  1574                           ;except.c: 16:             lcdCommand(0xC2);
  1575  00743E  0EC2               	movlw	194
  1576  007440  ECC8  F038         	call	_lcdCommand
  1577  007444                     l2750:
  1578                           
  1579                           ;except.c: 18:         lcdData(mensage[i]);
  1580  007444  0E09               	movlw	low exceptDesarmado@mensage
  1581  007446  241D               	addwf	exceptDesarmado@i^0,w,c
  1582  007448  6ED9               	movwf	fsr2l,c
  1583  00744A  0E00               	movlw	high exceptDesarmado@mensage
  1584  00744C  201E               	addwfc	(exceptDesarmado@i+1)^0,w,c
  1585  00744E  6EDA               	movwf	fsr2h,c
  1586  007450  50DF               	movf	indf2,w,c
  1587  007452  EC53  F036         	call	_lcdData
  1588  007456                     
  1589                           ;except.c: 19:     }
  1590  007456  4A1D               	infsnz	exceptDesarmado@i^0,f,c
  1591  007458  2A1E               	incf	(exceptDesarmado@i+1)^0,f,c
  1592  00745A  BE1E               	btfsc	(exceptDesarmado@i+1)^0,7,c
  1593  00745C  EF39  F03A         	goto	u2181
  1594  007460  501E               	movf	(exceptDesarmado@i+1)^0,w,c
  1595  007462  E109               	bnz	u2180
  1596  007464  0E14               	movlw	20
  1597  007466  5C1D               	subwf	exceptDesarmado@i^0,w,c
  1598  007468  A0D8               	btfss	status,0,c
  1599  00746A  EF39  F03A         	goto	u2181
  1600  00746E  EF3B  F03A         	goto	u2180
  1601  007472                     u2181:
  1602  007472  EF15  F03A         	goto	l2746
  1603  007476                     u2180:
  1604  007476                     
  1605                           ;except.c: 20:     for(i = 0; i<5; i++){
  1606  007476  0E00               	movlw	0
  1607  007478  6E1E               	movwf	(exceptDesarmado@i+1)^0,c
  1608  00747A  0E00               	movlw	0
  1609  00747C  6E1D               	movwf	exceptDesarmado@i^0,c
  1610  00747E                     l2762:
  1611                           
  1612                           ;except.c: 21:         delay(500);
  1613  00747E  0E01               	movlw	1
  1614  007480  6E02               	movwf	(delay@valor+1)^0,c
  1615  007482  0EF4               	movlw	244
  1616  007484  6E01               	movwf	delay@valor^0,c
  1617  007486  ECD4  F036         	call	_delay	;wreg free
  1618  00748A                     
  1619                           ;except.c: 22:     }
  1620  00748A  4A1D               	infsnz	exceptDesarmado@i^0,f,c
  1621  00748C  2A1E               	incf	(exceptDesarmado@i+1)^0,f,c
  1622  00748E  BE1E               	btfsc	(exceptDesarmado@i+1)^0,7,c
  1623  007490  EF53  F03A         	goto	u2191
  1624  007494  501E               	movf	(exceptDesarmado@i+1)^0,w,c
  1625  007496  E109               	bnz	u2190
  1626  007498  0E05               	movlw	5
  1627  00749A  5C1D               	subwf	exceptDesarmado@i^0,w,c
  1628  00749C  A0D8               	btfss	status,0,c
  1629  00749E  EF53  F03A         	goto	u2191
  1630  0074A2  EF55  F03A         	goto	u2190
  1631  0074A6                     u2191:
  1632  0074A6  EF3F  F03A         	goto	l2762
  1633  0074AA                     u2190:
  1634  0074AA                     
  1635                           ;except.c: 23:     lcdCommand(0x01);
  1636  0074AA  0E01               	movlw	1
  1637  0074AC  ECC8  F038         	call	_lcdCommand
  1638  0074B0  0012               	return		;funcret
  1639  0074B2                     __end_of_exceptDesarmado:
  1640                           	callstack 0
  1641                           
  1642 ;; *************** function _exceptArmado *****************
  1643 ;; Defined at:
  1644 ;;		line 27 in file "except.c"
  1645 ;; Parameters:    Size  Location     Type
  1646 ;;		None
  1647 ;; Auto vars:     Size  Location     Type
  1648 ;;  mensage        20    8[COMRAM] unsigned char [20]
  1649 ;;  i               2   28[COMRAM] int 
  1650 ;; Return value:  Size  Location     Type
  1651 ;;                  1    wreg      void 
  1652 ;; Registers used:
  1653 ;;		wreg, fsr1l, fsr1h, fsr2l, fsr2h, status,2, status,0, cstack
  1654 ;; Tracked objects:
  1655 ;;		On entry : 0/0
  1656 ;;		On exit  : 0/0
  1657 ;;		Unchanged: 0/0
  1658 ;; Data sizes:     COMRAM   BANK0   BANK1   BANK2   BANK3   BANK4   BANK5
  1659 ;;      Params:         0       0       0       0       0       0       0
  1660 ;;      Locals:        22       0       0       0       0       0       0
  1661 ;;      Temps:          0       0       0       0       0       0       0
  1662 ;;      Totals:        22       0       0       0       0       0       0
  1663 ;;Total ram usage:       22 bytes
  1664 ;; Hardware stack levels used: 1
  1665 ;; Hardware stack levels required when called: 4
  1666 ;; This function calls:
  1667 ;;		_delay
  1668 ;;		_lcdCommand
  1669 ;;		_lcdData
  1670 ;;		_lcdInit
  1671 ;; This function is called by:
  1672 ;;		_main
  1673 ;; This function uses a non-reentrant model
  1674 ;;
  1675                           
  1676                           	psect	text6
  1677  00734E                     __ptext6:
  1678                           	callstack 0
  1679  00734E                     _exceptArmado:
  1680                           	callstack 26
  1681  00734E                     
  1682                           ;except.c: 28:     int i;;except.c: 29:     char mensage[20]= "Central ja armada";
  1683  00734E  EE20  F0A3         	lfsr	2,exceptArmado@F17
  1684  007352  EE10  F009         	lfsr	1,exceptArmado@mensage
  1685  007356  0E13               	movlw	19
  1686  007358                     u2201:
  1687  007358  CFDB FFE3          	movff	plusw2,plusw1
  1688  00735C  06E8               	decf	wreg,f,c
  1689  00735E  E2FC               	bc	u2201
  1690  007360                     
  1691                           ;except.c: 30:     lcdInit();
  1692  007360  EC10  F038         	call	_lcdInit	;wreg free
  1693  007364                     
  1694                           ;except.c: 32:     lcdCommand(0x01);
  1695  007364  0E01               	movlw	1
  1696  007366  ECC8  F038         	call	_lcdCommand
  1697  00736A                     
  1698                           ;except.c: 33:     lcdCommand(0x85);
  1699  00736A  0E85               	movlw	133
  1700  00736C  ECC8  F038         	call	_lcdCommand
  1701  007370                     
  1702                           ;except.c: 34:     for(i = 0; i<20; i++){
  1703  007370  0E00               	movlw	0
  1704  007372  6E1E               	movwf	(exceptArmado@i+1)^0,c
  1705  007374  0E00               	movlw	0
  1706  007376  6E1D               	movwf	exceptArmado@i^0,c
  1707  007378                     l2784:
  1708                           
  1709                           ;except.c: 35:         if(i == 8){
  1710  007378  0E08               	movlw	8
  1711  00737A  181D               	xorwf	exceptArmado@i^0,w,c
  1712  00737C  101E               	iorwf	(exceptArmado@i+1)^0,w,c
  1713  00737E  A4D8               	btfss	status,2,c
  1714  007380  EFC4  F039         	goto	u2211
  1715  007384  EFC6  F039         	goto	u2210
  1716  007388                     u2211:
  1717  007388  EFC9  F039         	goto	l2788
  1718  00738C                     u2210:
  1719  00738C                     
  1720                           ;except.c: 36:             lcdCommand(0xC4);
  1721  00738C  0EC4               	movlw	196
  1722  00738E  ECC8  F038         	call	_lcdCommand
  1723  007392                     l2788:
  1724                           
  1725                           ;except.c: 38:         lcdData(mensage[i]);
  1726  007392  0E09               	movlw	low exceptArmado@mensage
  1727  007394  241D               	addwf	exceptArmado@i^0,w,c
  1728  007396  6ED9               	movwf	fsr2l,c
  1729  007398  0E00               	movlw	high exceptArmado@mensage
  1730  00739A  201E               	addwfc	(exceptArmado@i+1)^0,w,c
  1731  00739C  6EDA               	movwf	fsr2h,c
  1732  00739E  50DF               	movf	indf2,w,c
  1733  0073A0  EC53  F036         	call	_lcdData
  1734  0073A4                     
  1735                           ;except.c: 39:     }
  1736  0073A4  4A1D               	infsnz	exceptArmado@i^0,f,c
  1737  0073A6  2A1E               	incf	(exceptArmado@i+1)^0,f,c
  1738  0073A8  BE1E               	btfsc	(exceptArmado@i+1)^0,7,c
  1739  0073AA  EFE0  F039         	goto	u2221
  1740  0073AE  501E               	movf	(exceptArmado@i+1)^0,w,c
  1741  0073B0  E109               	bnz	u2220
  1742  0073B2  0E14               	movlw	20
  1743  0073B4  5C1D               	subwf	exceptArmado@i^0,w,c
  1744  0073B6  A0D8               	btfss	status,0,c
  1745  0073B8  EFE0  F039         	goto	u2221
  1746  0073BC  EFE2  F039         	goto	u2220
  1747  0073C0                     u2221:
  1748  0073C0  EFBC  F039         	goto	l2784
  1749  0073C4                     u2220:
  1750  0073C4                     
  1751                           ;except.c: 40:     for(i = 0; i<5; i++){
  1752  0073C4  0E00               	movlw	0
  1753  0073C6  6E1E               	movwf	(exceptArmado@i+1)^0,c
  1754  0073C8  0E00               	movlw	0
  1755  0073CA  6E1D               	movwf	exceptArmado@i^0,c
  1756  0073CC                     l2800:
  1757                           
  1758                           ;except.c: 41:         delay(500);
  1759  0073CC  0E01               	movlw	1
  1760  0073CE  6E02               	movwf	(delay@valor+1)^0,c
  1761  0073D0  0EF4               	movlw	244
  1762  0073D2  6E01               	movwf	delay@valor^0,c
  1763  0073D4  ECD4  F036         	call	_delay	;wreg free
  1764  0073D8                     
  1765                           ;except.c: 42:     }
  1766  0073D8  4A1D               	infsnz	exceptArmado@i^0,f,c
  1767  0073DA  2A1E               	incf	(exceptArmado@i+1)^0,f,c
  1768  0073DC  BE1E               	btfsc	(exceptArmado@i+1)^0,7,c
  1769  0073DE  EFFA  F039         	goto	u2231
  1770  0073E2  501E               	movf	(exceptArmado@i+1)^0,w,c
  1771  0073E4  E109               	bnz	u2230
  1772  0073E6  0E05               	movlw	5
  1773  0073E8  5C1D               	subwf	exceptArmado@i^0,w,c
  1774  0073EA  A0D8               	btfss	status,0,c
  1775  0073EC  EFFA  F039         	goto	u2231
  1776  0073F0  EFFC  F039         	goto	u2230
  1777  0073F4                     u2231:
  1778  0073F4  EFE6  F039         	goto	l2800
  1779  0073F8                     u2230:
  1780  0073F8                     
  1781                           ;except.c: 43:     lcdCommand(0x01);
  1782  0073F8  0E01               	movlw	1
  1783  0073FA  ECC8  F038         	call	_lcdCommand
  1784  0073FE  0012               	return		;funcret
  1785  007400                     __end_of_exceptArmado:
  1786                           	callstack 0
  1787                           
  1788 ;; *************** function _cooler *****************
  1789 ;; Defined at:
  1790 ;;		line 6 in file "cooler.c"
  1791 ;; Parameters:    Size  Location     Type
  1792 ;;		None
  1793 ;; Auto vars:     Size  Location     Type
  1794 ;;		None
  1795 ;; Return value:  Size  Location     Type
  1796 ;;                  1    wreg      void 
  1797 ;; Registers used:
  1798 ;;		wreg, status,2, status,0, prodl, prodh, cstack
  1799 ;; Tracked objects:
  1800 ;;		On entry : 0/0
  1801 ;;		On exit  : 0/0
  1802 ;;		Unchanged: 0/0
  1803 ;; Data sizes:     COMRAM   BANK0   BANK1   BANK2   BANK3   BANK4   BANK5
  1804 ;;      Params:         0       0       0       0       0       0       0
  1805 ;;      Locals:         0       0       0       0       0       0       0
  1806 ;;      Temps:          0       0       0       0       0       0       0
  1807 ;;      Totals:         0       0       0       0       0       0       0
  1808 ;;Total ram usage:        0 bytes
  1809 ;; Hardware stack levels used: 1
  1810 ;; Hardware stack levels required when called: 2
  1811 ;; This function calls:
  1812 ;;		_pwmInit
  1813 ;;		_pwmSet1
  1814 ;; This function is called by:
  1815 ;;		_main
  1816 ;; This function uses a non-reentrant model
  1817 ;;
  1818                           
  1819                           	psect	text7
  1820  006BA0                     __ptext7:
  1821                           	callstack 0
  1822  006BA0                     _cooler:
  1823                           	callstack 28
  1824  006BA0                     
  1825                           ;cooler.c: 8:     ADCON1 = 0x06;
  1826  006BA0  0E06               	movlw	6
  1827  006BA2  6EC1               	movwf	193,c	;volatile
  1828                           
  1829                           ;cooler.c: 9:     TRISB = 0x01;
  1830  006BA4  0E01               	movlw	1
  1831  006BA6  6E93               	movwf	147,c	;volatile
  1832                           
  1833                           ;cooler.c: 10:     TRISC = 0x00;
  1834  006BA8  0E00               	movlw	0
  1835  006BAA  6E94               	movwf	148,c	;volatile
  1836                           
  1837                           ;cooler.c: 11:     TRISD = 0x00;
  1838  006BAC  0E00               	movlw	0
  1839  006BAE  6E95               	movwf	149,c	;volatile
  1840                           
  1841                           ;cooler.c: 12:     TRISE = 0x00;
  1842  006BB0  0E00               	movlw	0
  1843  006BB2  6E96               	movwf	150,c	;volatile
  1844                           
  1845                           ;cooler.c: 13:     TRISB = 0xF8;
  1846  006BB4  0EF8               	movlw	248
  1847  006BB6  6E93               	movwf	147,c	;volatile
  1848  006BB8                     
  1849                           ;cooler.c: 15:     pwmInit();
  1850  006BB8  EC77  F035         	call	_pwmInit	;wreg free
  1851  006BBC                     
  1852                           ;cooler.c: 16:     pwmSet1(96);
  1853  006BBC  0E60               	movlw	96
  1854  006BBE  EC67  F037         	call	_pwmSet1
  1855  006BC2                     
  1856                           ;cooler.c: 17:     PORTCbits.RC5 = 1;
  1857  006BC2  8A82               	bsf	130,5,c	;volatile
  1858  006BC4  0012               	return		;funcret
  1859  006BC6                     __end_of_cooler:
  1860                           	callstack 0
  1861                           
  1862 ;; *************** function _pwmSet1 *****************
  1863 ;; Defined at:
  1864 ;;		line 23 in file "pwm.c"
  1865 ;; Parameters:    Size  Location     Type
  1866 ;;  porcento        1    wreg     unsigned char 
  1867 ;; Auto vars:     Size  Location     Type
  1868 ;;  porcento        1    9[COMRAM] unsigned char 
  1869 ;;  val             2   10[COMRAM] unsigned int 
  1870 ;; Return value:  Size  Location     Type
  1871 ;;                  1    wreg      void 
  1872 ;; Registers used:
  1873 ;;		wreg, status,2, status,0, prodl, prodh, cstack
  1874 ;; Tracked objects:
  1875 ;;		On entry : 0/0
  1876 ;;		On exit  : 0/0
  1877 ;;		Unchanged: 0/0
  1878 ;; Data sizes:     COMRAM   BANK0   BANK1   BANK2   BANK3   BANK4   BANK5
  1879 ;;      Params:         0       0       0       0       0       0       0
  1880 ;;      Locals:         3       0       0       0       0       0       0
  1881 ;;      Temps:          2       0       0       0       0       0       0
  1882 ;;      Totals:         5       0       0       0       0       0       0
  1883 ;;Total ram usage:        5 bytes
  1884 ;; Hardware stack levels used: 1
  1885 ;; Hardware stack levels required when called: 1
  1886 ;; This function calls:
  1887 ;;		___lwdiv
  1888 ;;		___wmul
  1889 ;; This function is called by:
  1890 ;;		_main
  1891 ;;		_cooler
  1892 ;; This function uses a non-reentrant model
  1893 ;;
  1894                           
  1895                           	psect	text8
  1896  006ECE                     __ptext8:
  1897                           	callstack 0
  1898  006ECE                     _pwmSet1:
  1899                           	callstack 29
  1900                           
  1901                           ;incstack = 0
  1902                           ;pwmSet1@porcento stored from wreg
  1903  006ECE  6E0A               	movwf	pwmSet1@porcento^0,c
  1904  006ED0                     
  1905                           ;pwm.c: 23: void pwmSet1(unsigned char porcento);pwm.c: 24: {;pwm.c: 30:  unsigned int v
      +                          al = ((unsigned int)porcento) *((*(volatile __near unsigned char*)0xFCB)+1);
  1906  006ED0  0E01               	movlw	1
  1907  006ED2  24CB               	addwf	203,w,c	;volatile
  1908  006ED4  6E01               	movwf	___wmul@multiplier^0,c
  1909  006ED6  6A02               	clrf	(___wmul@multiplier+1)^0,c
  1910  006ED8  0E00               	movlw	0
  1911  006EDA  2202               	addwfc	(___wmul@multiplier+1)^0,f,c
  1912  006EDC  C00A  F003         	movff	pwmSet1@porcento,___wmul@multiplicand
  1913  006EE0  6A04               	clrf	(___wmul@multiplicand+1)^0,c
  1914  006EE2  ECBD  F035         	call	___wmul	;wreg free
  1915  006EE6  C001  F00B         	movff	?___wmul,pwmSet1@val
  1916  006EEA  C002  F00C         	movff	?___wmul+1,pwmSet1@val+1
  1917  006EEE                     
  1918                           ;pwm.c: 31:  val = val / 25;
  1919  006EEE  C00B  F001         	movff	pwmSet1@val,___lwdiv@dividend
  1920  006EF2  C00C  F002         	movff	pwmSet1@val+1,___lwdiv@dividend+1
  1921  006EF6  0E00               	movlw	0
  1922  006EF8  6E04               	movwf	(___lwdiv@divisor+1)^0,c
  1923  006EFA  0E19               	movlw	25
  1924  006EFC  6E03               	movwf	___lwdiv@divisor^0,c
  1925  006EFE  ECD6  F037         	call	___lwdiv	;wreg free
  1926  006F02  C001  F00B         	movff	?___lwdiv,pwmSet1@val
  1927  006F06  C002  F00C         	movff	?___lwdiv+1,pwmSet1@val+1
  1928  006F0A                     
  1929                           ;pwm.c: 33:  val &= 0x03ff;
  1930  006F0A  0EFF               	movlw	255
  1931  006F0C  160B               	andwf	pwmSet1@val^0,f,c
  1932  006F0E  0E03               	movlw	3
  1933  006F10  160C               	andwf	(pwmSet1@val+1)^0,f,c
  1934  006F12                     
  1935                           ;pwm.c: 35:  (*(volatile __near unsigned char*)0xFBE) = val >> 2;
  1936  006F12  C00B  F008         	movff	pwmSet1@val,??_pwmSet1
  1937  006F16  C00C  F009         	movff	pwmSet1@val+1,??_pwmSet1+1
  1938  006F1A  90D8               	bcf	status,0,c
  1939  006F1C  3209               	rrcf	(??_pwmSet1+1)^0,f,c
  1940  006F1E  3208               	rrcf	??_pwmSet1^0,f,c
  1941  006F20  90D8               	bcf	status,0,c
  1942  006F22  3209               	rrcf	(??_pwmSet1+1)^0,f,c
  1943  006F24  3208               	rrcf	??_pwmSet1^0,f,c
  1944  006F26  5008               	movf	??_pwmSet1^0,w,c
  1945  006F28  6EBE               	movwf	190,c	;volatile
  1946  006F2A                     
  1947                           ;pwm.c: 37:  (*(volatile __near unsigned char*)0xFBD) |= (val & 0x0003) << 4;
  1948  006F2A  C00B  F008         	movff	pwmSet1@val,??_pwmSet1
  1949  006F2E  0E03               	movlw	3
  1950  006F30  1608               	andwf	??_pwmSet1^0,f,c
  1951  006F32  3808               	swapf	??_pwmSet1^0,w,c
  1952  006F34  0BF0               	andlw	240
  1953  006F36  12BD               	iorwf	189,f,c	;volatile
  1954  006F38  0012               	return		;funcret
  1955  006F3A                     __end_of_pwmSet1:
  1956                           	callstack 0
  1957                           
  1958 ;; *************** function _centralDesarmada *****************
  1959 ;; Defined at:
  1960 ;;		line 12 in file "centralDesarmada.c"
  1961 ;; Parameters:    Size  Location     Type
  1962 ;;		None
  1963 ;; Auto vars:     Size  Location     Type
  1964 ;;  i               2   31[COMRAM] int 
  1965 ;;  j               1   33[COMRAM] unsigned char 
  1966 ;; Return value:  Size  Location     Type
  1967 ;;                  1    wreg      void 
  1968 ;; Registers used:
  1969 ;;		wreg, fsr1l, fsr1h, fsr2l, fsr2h, status,2, status,0, prodl, prodh, cstack
  1970 ;; Tracked objects:
  1971 ;;		On entry : 0/0
  1972 ;;		On exit  : 0/0
  1973 ;;		Unchanged: 0/0
  1974 ;; Data sizes:     COMRAM   BANK0   BANK1   BANK2   BANK3   BANK4   BANK5
  1975 ;;      Params:         0       0       0       0       0       0       0
  1976 ;;      Locals:         3       0       0       0       0       0       0
  1977 ;;      Temps:          0       0       0       0       0       0       0
  1978 ;;      Totals:         3       0       0       0       0       0       0
  1979 ;;Total ram usage:        3 bytes
  1980 ;; Hardware stack levels used: 1
  1981 ;; Hardware stack levels required when called: 5
  1982 ;; This function calls:
  1983 ;;		_buzzerDesarmada
  1984 ;;		_delay
  1985 ;;		_lcdCommand
  1986 ;;		_mensagemDesarmada
  1987 ;; This function is called by:
  1988 ;;		_main
  1989 ;; This function uses a non-reentrant model
  1990 ;;
  1991                           
  1992                           	psect	text9
  1993  0074B2                     __ptext9:
  1994                           	callstack 0
  1995  0074B2                     _centralDesarmada:
  1996                           	callstack 25
  1997  0074B2                     
  1998                           ;centralDesarmada.c: 14:     int i;;centralDesarmada.c: 15:     unsigned char j;;central
      +                          Desarmada.c: 18:     TRISD = 0x00;
  1999  0074B2  0E00               	movlw	0
  2000  0074B4  6E95               	movwf	149,c	;volatile
  2001                           
  2002                           ;centralDesarmada.c: 19:     TRISA = 0x00;
  2003  0074B6  0E00               	movlw	0
  2004  0074B8  6E92               	movwf	146,c	;volatile
  2005  0074BA                     
  2006                           ;centralDesarmada.c: 21:     ((INTCON2) &= ~(1<<(7)));
  2007  0074BA  9EF1               	bcf	241,7,c	;volatile
  2008  0074BC                     
  2009                           ;centralDesarmada.c: 22:     ADCON1 = 0x0E;
  2010  0074BC  0E0E               	movlw	14
  2011  0074BE  6EC1               	movwf	193,c	;volatile
  2012  0074C0                     
  2013                           ;centralDesarmada.c: 23:     TRISB = 0xFD;
  2014  0074C0  0EFD               	movlw	253
  2015  0074C2  6E93               	movwf	147,c	;volatile
  2016  0074C4                     
  2017                           ;centralDesarmada.c: 24:     PORTB = 0x00;
  2018  0074C4  0E00               	movlw	0
  2019  0074C6  6E81               	movwf	129,c	;volatile
  2020                           
  2021                           ;centralDesarmada.c: 27:     ((PORTA) &= ~(1<<(5)));
  2022  0074C8  9A80               	bcf	128,5,c	;volatile
  2023                           
  2024                           ;centralDesarmada.c: 28:     ((PORTA) &= ~(1<<(4)));
  2025  0074CA  9880               	bcf	128,4,c	;volatile
  2026                           
  2027                           ;centralDesarmada.c: 29:     ((PORTA) &= ~(1<<(3)));
  2028  0074CC  9680               	bcf	128,3,c	;volatile
  2029                           
  2030                           ;centralDesarmada.c: 30:     ((PORTA) &= ~(1<<(2)));
  2031  0074CE  9480               	bcf	128,2,c	;volatile
  2032  0074D0                     
  2033                           ;centralDesarmada.c: 33:     mensagemDesarmada();
  2034  0074D0  EC8A  F038         	call	_mensagemDesarmada	;wreg free
  2035  0074D4                     
  2036                           ;centralDesarmada.c: 37:     buzzerDesarmada();
  2037  0074D4  ECE3  F035         	call	_buzzerDesarmada	;wreg free
  2038  0074D8                     
  2039                           ;centralDesarmada.c: 39:     for(j = 0; j< 1; j++){
  2040  0074D8  0E00               	movlw	0
  2041  0074DA  6E22               	movwf	centralDesarmada@j^0,c
  2042  0074DC                     l294:
  2043                           
  2044                           ;centralDesarmada.c: 40:         PORTD = 0xff;
  2045  0074DC  6883               	setf	131,c	;volatile
  2046  0074DE                     
  2047                           ;centralDesarmada.c: 41:         delay(1000);
  2048  0074DE  0E03               	movlw	3
  2049  0074E0  6E02               	movwf	(delay@valor+1)^0,c
  2050  0074E2  0EE8               	movlw	232
  2051  0074E4  6E01               	movwf	delay@valor^0,c
  2052  0074E6  ECD4  F036         	call	_delay	;wreg free
  2053  0074EA                     
  2054                           ;centralDesarmada.c: 43:         PORTD = 0x00;
  2055  0074EA  0E00               	movlw	0
  2056  0074EC  6E83               	movwf	131,c	;volatile
  2057  0074EE                     
  2058                           ;centralDesarmada.c: 44:         delay(1000);
  2059  0074EE  0E03               	movlw	3
  2060  0074F0  6E02               	movwf	(delay@valor+1)^0,c
  2061  0074F2  0EE8               	movlw	232
  2062  0074F4  6E01               	movwf	delay@valor^0,c
  2063  0074F6  ECD4  F036         	call	_delay	;wreg free
  2064  0074FA                     
  2065                           ;centralDesarmada.c: 45:     }
  2066  0074FA  2A22               	incf	centralDesarmada@j^0,f,c
  2067  0074FC  5022               	movf	centralDesarmada@j^0,w,c
  2068  0074FE  B4D8               	btfsc	status,2,c
  2069  007500  EF84  F03A         	goto	u2121
  2070  007504  EF86  F03A         	goto	u2120
  2071  007508                     u2121:
  2072  007508  EF6E  F03A         	goto	l294
  2073  00750C                     u2120:
  2074  00750C                     
  2075                           ;centralDesarmada.c: 48:     for(j = 0; j< 100; j++){
  2076  00750C  0E00               	movlw	0
  2077  00750E  6E22               	movwf	centralDesarmada@j^0,c
  2078  007510                     l2680:
  2079                           
  2080                           ;centralDesarmada.c: 49:         ((PORTA) &= ~(1<<(4)));
  2081  007510  9880               	bcf	128,4,c	;volatile
  2082                           
  2083                           ;centralDesarmada.c: 50:         ((PORTA) &= ~(1<<(3)));
  2084  007512  9680               	bcf	128,3,c	;volatile
  2085                           
  2086                           ;centralDesarmada.c: 51:         ((PORTA) |= (1<<(2)));
  2087  007514  8480               	bsf	128,2,c	;volatile
  2088  007516                     
  2089                           ;centralDesarmada.c: 52:         PORTD = 0x3f;
  2090  007516  0E3F               	movlw	63
  2091  007518  6E83               	movwf	131,c	;volatile
  2092  00751A                     
  2093                           ;centralDesarmada.c: 53:         delay(10);
  2094  00751A  0E00               	movlw	0
  2095  00751C  6E02               	movwf	(delay@valor+1)^0,c
  2096  00751E  0E0A               	movlw	10
  2097  007520  6E01               	movwf	delay@valor^0,c
  2098  007522  ECD4  F036         	call	_delay	;wreg free
  2099  007526                     
  2100                           ;centralDesarmada.c: 55:         ((PORTA) &= ~(1<<(2)));
  2101  007526  9480               	bcf	128,2,c	;volatile
  2102  007528                     
  2103                           ;centralDesarmada.c: 56:         ((PORTA) |= (1<<(3)));
  2104  007528  8680               	bsf	128,3,c	;volatile
  2105  00752A                     
  2106                           ;centralDesarmada.c: 57:         ((PORTA) |= (1<<(4)));
  2107  00752A  8880               	bsf	128,4,c	;volatile
  2108  00752C                     
  2109                           ;centralDesarmada.c: 58:         PORTD = 0x71;
  2110  00752C  0E71               	movlw	113
  2111  00752E  6E83               	movwf	131,c	;volatile
  2112                           
  2113                           ;centralDesarmada.c: 59:         delay(10);
  2114  007530  0E00               	movlw	0
  2115  007532  6E02               	movwf	(delay@valor+1)^0,c
  2116  007534  0E0A               	movlw	10
  2117  007536  6E01               	movwf	delay@valor^0,c
  2118  007538  ECD4  F036         	call	_delay	;wreg free
  2119  00753C                     
  2120                           ;centralDesarmada.c: 60:     }
  2121  00753C  2A22               	incf	centralDesarmada@j^0,f,c
  2122  00753E  0E63               	movlw	99
  2123  007540  6422               	cpfsgt	centralDesarmada@j^0,c
  2124  007542  EFA5  F03A         	goto	u2131
  2125  007546  EFA7  F03A         	goto	u2130
  2126  00754A                     u2131:
  2127  00754A  EF88  F03A         	goto	l2680
  2128  00754E                     u2130:
  2129  00754E                     
  2130                           ;centralDesarmada.c: 62:     ((PORTA) &= ~(1<<(4)));
  2131  00754E  9880               	bcf	128,4,c	;volatile
  2132                           
  2133                           ;centralDesarmada.c: 63:     ((PORTA) &= ~(1<<(3)));
  2134  007550  9680               	bcf	128,3,c	;volatile
  2135                           
  2136                           ;centralDesarmada.c: 64:     ((PORTA) &= ~(1<<(2)));
  2137  007552  9480               	bcf	128,2,c	;volatile
  2138  007554                     
  2139                           ;centralDesarmada.c: 67:     for(i=0; i< 1000; i++){
  2140  007554  0E00               	movlw	0
  2141  007556  6E21               	movwf	(centralDesarmada@i+1)^0,c
  2142  007558  0E00               	movlw	0
  2143  00755A  6E20               	movwf	centralDesarmada@i^0,c
  2144  00755C                     l2706:
  2145                           
  2146                           ;centralDesarmada.c: 68:         for(j = 0; j< 100; j++);
  2147  00755C  0E00               	movlw	0
  2148  00755E  6E22               	movwf	centralDesarmada@j^0,c
  2149  007560                     l2712:
  2150  007560  2A22               	incf	centralDesarmada@j^0,f,c
  2151  007562  0E63               	movlw	99
  2152  007564  6422               	cpfsgt	centralDesarmada@j^0,c
  2153  007566  EFB7  F03A         	goto	u2141
  2154  00756A  EFB9  F03A         	goto	u2140
  2155  00756E                     u2141:
  2156  00756E  EFB0  F03A         	goto	l2712
  2157  007572                     u2140:
  2158  007572                     
  2159                           ;centralDesarmada.c: 69:     }
  2160  007572  4A20               	infsnz	centralDesarmada@i^0,f,c
  2161  007574  2A21               	incf	(centralDesarmada@i+1)^0,f,c
  2162  007576  BE21               	btfsc	(centralDesarmada@i+1)^0,7,c
  2163  007578  EFC7  F03A         	goto	u2151
  2164  00757C  0EE8               	movlw	232
  2165  00757E  5C20               	subwf	centralDesarmada@i^0,w,c
  2166  007580  0E03               	movlw	3
  2167  007582  5821               	subwfb	(centralDesarmada@i+1)^0,w,c
  2168  007584  A0D8               	btfss	status,0,c
  2169  007586  EFC7  F03A         	goto	u2151
  2170  00758A  EFC9  F03A         	goto	u2150
  2171  00758E                     u2151:
  2172  00758E  EFAE  F03A         	goto	l2706
  2173  007592                     u2150:
  2174  007592                     
  2175                           ;centralDesarmada.c: 70:     lcdCommand(0x01);
  2176  007592  0E01               	movlw	1
  2177  007594  ECC8  F038         	call	_lcdCommand
  2178  007598                     
  2179                           ;centralDesarmada.c: 72:     PORTCbits.RC5 = 0;
  2180  007598  9A82               	bcf	130,5,c	;volatile
  2181  00759A  0012               	return		;funcret
  2182  00759C                     __end_of_centralDesarmada:
  2183                           	callstack 0
  2184                           
  2185 ;; *************** function _mensagemDesarmada *****************
  2186 ;; Defined at:
  2187 ;;		line 32 in file "printf.c"
  2188 ;; Parameters:    Size  Location     Type
  2189 ;;		None
  2190 ;; Auto vars:     Size  Location     Type
  2191 ;;  msg            18   11[COMRAM] unsigned char [18]
  2192 ;;  i               2   29[COMRAM] int 
  2193 ;; Return value:  Size  Location     Type
  2194 ;;                  1    wreg      void 
  2195 ;; Registers used:
  2196 ;;		wreg, fsr1l, fsr1h, fsr2l, fsr2h, status,2, status,0, cstack
  2197 ;; Tracked objects:
  2198 ;;		On entry : 0/0
  2199 ;;		On exit  : 0/0
  2200 ;;		Unchanged: 0/0
  2201 ;; Data sizes:     COMRAM   BANK0   BANK1   BANK2   BANK3   BANK4   BANK5
  2202 ;;      Params:         0       0       0       0       0       0       0
  2203 ;;      Locals:        20       0       0       0       0       0       0
  2204 ;;      Temps:          0       0       0       0       0       0       0
  2205 ;;      Totals:        20       0       0       0       0       0       0
  2206 ;;Total ram usage:       20 bytes
  2207 ;; Hardware stack levels used: 1
  2208 ;; Hardware stack levels required when called: 4
  2209 ;; This function calls:
  2210 ;;		_lcdCommand
  2211 ;;		_lcdData
  2212 ;;		_lcdInit
  2213 ;;		_lcdPosition
  2214 ;; This function is called by:
  2215 ;;		_centralDesarmada
  2216 ;; This function uses a non-reentrant model
  2217 ;;
  2218                           
  2219                           	psect	text10
  2220  007114                     __ptext10:
  2221                           	callstack 0
  2222  007114                     _mensagemDesarmada:
  2223                           	callstack 25
  2224  007114                     
  2225                           ;printf.c: 35:     int i;;printf.c: 36:     char msg[18] = "Central Desarmada";
  2226  007114  EE20  F056         	lfsr	2,mensagemDesarmada@F20
  2227  007118  EE10  F00C         	lfsr	1,mensagemDesarmada@msg
  2228  00711C  0E11               	movlw	17
  2229  00711E                     u1981:
  2230  00711E  CFDB FFE3          	movff	plusw2,plusw1
  2231  007122  06E8               	decf	wreg,f,c
  2232  007124  E2FC               	bc	u1981
  2233  007126                     
  2234                           ;printf.c: 40:     lcdInit();
  2235  007126  EC10  F038         	call	_lcdInit	;wreg free
  2236  00712A                     
  2237                           ;printf.c: 43:     lcdCommand(0x01);
  2238  00712A  0E01               	movlw	1
  2239  00712C  ECC8  F038         	call	_lcdCommand
  2240  007130                     
  2241                           ;printf.c: 44:     lcdPosition(5, 0);
  2242  007130  0E00               	movlw	0
  2243  007132  6E09               	movwf	lcdPosition@linha^0,c
  2244  007134  0E05               	movlw	5
  2245  007136  EC07  F039         	call	_lcdPosition
  2246  00713A                     
  2247                           ;printf.c: 45:     for(i =0; i<18; i++){
  2248  00713A  0E00               	movlw	0
  2249  00713C  6E1F               	movwf	(mensagemDesarmada@i+1)^0,c
  2250  00713E  0E00               	movlw	0
  2251  007140  6E1E               	movwf	mensagemDesarmada@i^0,c
  2252  007142                     l2494:
  2253                           
  2254                           ;printf.c: 46:         lcdData(msg[i]);
  2255  007142  0E0C               	movlw	low mensagemDesarmada@msg
  2256  007144  241E               	addwf	mensagemDesarmada@i^0,w,c
  2257  007146  6ED9               	movwf	fsr2l,c
  2258  007148  0E00               	movlw	high mensagemDesarmada@msg
  2259  00714A  201F               	addwfc	(mensagemDesarmada@i+1)^0,w,c
  2260  00714C  6EDA               	movwf	fsr2h,c
  2261  00714E  50DF               	movf	indf2,w,c
  2262  007150  EC53  F036         	call	_lcdData
  2263  007154                     
  2264                           ;printf.c: 47:         if(i == 7){
  2265  007154  0E07               	movlw	7
  2266  007156  181E               	xorwf	mensagemDesarmada@i^0,w,c
  2267  007158  101F               	iorwf	(mensagemDesarmada@i+1)^0,w,c
  2268  00715A  A4D8               	btfss	status,2,c
  2269  00715C  EFB2  F038         	goto	u1991
  2270  007160  EFB4  F038         	goto	u1990
  2271  007164                     u1991:
  2272  007164  EFB7  F038         	goto	l2500
  2273  007168                     u1990:
  2274  007168                     
  2275                           ;printf.c: 48:             lcdCommand(0xC4);
  2276  007168  0EC4               	movlw	196
  2277  00716A  ECC8  F038         	call	_lcdCommand
  2278  00716E                     l2500:
  2279                           
  2280                           ;printf.c: 50:     }
  2281  00716E  4A1E               	infsnz	mensagemDesarmada@i^0,f,c
  2282  007170  2A1F               	incf	(mensagemDesarmada@i+1)^0,f,c
  2283  007172  BE1F               	btfsc	(mensagemDesarmada@i+1)^0,7,c
  2284  007174  EFC5  F038         	goto	u2001
  2285  007178  501F               	movf	(mensagemDesarmada@i+1)^0,w,c
  2286  00717A  E109               	bnz	u2000
  2287  00717C  0E12               	movlw	18
  2288  00717E  5C1E               	subwf	mensagemDesarmada@i^0,w,c
  2289  007180  A0D8               	btfss	status,0,c
  2290  007182  EFC5  F038         	goto	u2001
  2291  007186  EFC7  F038         	goto	u2000
  2292  00718A                     u2001:
  2293  00718A  EFA1  F038         	goto	l2494
  2294  00718E                     u2000:
  2295  00718E  0012               	return		;funcret
  2296  007190                     __end_of_mensagemDesarmada:
  2297                           	callstack 0
  2298                           
  2299 ;; *************** function _buzzerDesarmada *****************
  2300 ;; Defined at:
  2301 ;;		line 21 in file "buzzer.c"
  2302 ;; Parameters:    Size  Location     Type
  2303 ;;		None
  2304 ;; Auto vars:     Size  Location     Type
  2305 ;;  i               2    0        int 
  2306 ;; Return value:  Size  Location     Type
  2307 ;;                  1    wreg      void 
  2308 ;; Registers used:
  2309 ;;		wreg, status,2, status,0, prodl, prodh, cstack
  2310 ;; Tracked objects:
  2311 ;;		On entry : 0/0
  2312 ;;		On exit  : 0/0
  2313 ;;		Unchanged: 0/0
  2314 ;; Data sizes:     COMRAM   BANK0   BANK1   BANK2   BANK3   BANK4   BANK5
  2315 ;;      Params:         0       0       0       0       0       0       0
  2316 ;;      Locals:         0       0       0       0       0       0       0
  2317 ;;      Temps:          0       0       0       0       0       0       0
  2318 ;;      Totals:         0       0       0       0       0       0       0
  2319 ;;Total ram usage:        0 bytes
  2320 ;; Hardware stack levels used: 1
  2321 ;; Hardware stack levels required when called: 2
  2322 ;; This function calls:
  2323 ;;		_delay
  2324 ;;		_pwmFrequency
  2325 ;;		_pwmInit
  2326 ;;		_pwmSet2
  2327 ;; This function is called by:
  2328 ;;		_centralDesarmada
  2329 ;; This function uses a non-reentrant model
  2330 ;;
  2331                           
  2332                           	psect	text11
  2333  006BC6                     __ptext11:
  2334                           	callstack 0
  2335  006BC6                     _buzzerDesarmada:
  2336                           	callstack 27
  2337  006BC6                     
  2338                           ;buzzer.c: 23:     int i;;buzzer.c: 24:     pwmInit();
  2339  006BC6  EC77  F035         	call	_pwmInit	;wreg free
  2340                           
  2341                           ;buzzer.c: 26:     pwmFrequency(10000);
  2342  006BCA  0E27               	movlw	39
  2343  006BCC  6E10               	movwf	(pwmFrequency@freq+1)^0,c
  2344  006BCE  0E10               	movlw	16
  2345  006BD0  6E0F               	movwf	pwmFrequency@freq^0,c
  2346  006BD2  ECAA  F035         	call	_pwmFrequency	;wreg free
  2347  006BD6                     
  2348                           ;buzzer.c: 27:     pwmSet2(50);
  2349  006BD6  0E32               	movlw	50
  2350  006BD8  EC31  F037         	call	_pwmSet2
  2351  006BDC                     
  2352                           ;buzzer.c: 28:     delay(400);
  2353  006BDC  0E01               	movlw	1
  2354  006BDE  6E02               	movwf	(delay@valor+1)^0,c
  2355  006BE0  0E90               	movlw	144
  2356  006BE2  6E01               	movwf	delay@valor^0,c
  2357  006BE4  ECD4  F036         	call	_delay	;wreg free
  2358                           
  2359                           ;buzzer.c: 29:     pwmSet2(0);
  2360  006BE8  0E00               	movlw	0
  2361  006BEA  EC31  F037         	call	_pwmSet2
  2362  006BEE  0012               	return		;funcret
  2363  006BF0                     __end_of_buzzerDesarmada:
  2364                           	callstack 0
  2365                           
  2366 ;; *************** function _casaInvadida *****************
  2367 ;; Defined at:
  2368 ;;		line 10 in file "casaInvadida.c"
  2369 ;; Parameters:    Size  Location     Type
  2370 ;;		None
  2371 ;; Auto vars:     Size  Location     Type
  2372 ;;  valor           2    0        int 
  2373 ;;  j               2    0        int 
  2374 ;;  i               2    0        int 
  2375 ;;  verifica        2    0        unsigned int 
  2376 ;;  k               1    0        unsigned char 
  2377 ;; Return value:  Size  Location     Type
  2378 ;;                  1    wreg      void 
  2379 ;; Registers used:
  2380 ;;		wreg, fsr1l, fsr1h, fsr2l, fsr2h, status,2, status,0, prodl, prodh, cstack
  2381 ;; Tracked objects:
  2382 ;;		On entry : 0/0
  2383 ;;		On exit  : 0/0
  2384 ;;		Unchanged: 0/0
  2385 ;; Data sizes:     COMRAM   BANK0   BANK1   BANK2   BANK3   BANK4   BANK5
  2386 ;;      Params:         0       0       0       0       0       0       0
  2387 ;;      Locals:         0       0       0       0       0       0       0
  2388 ;;      Temps:          0       0       0       0       0       0       0
  2389 ;;      Totals:         0       0       0       0       0       0       0
  2390 ;;Total ram usage:        0 bytes
  2391 ;; Hardware stack levels used: 1
  2392 ;; Hardware stack levels required when called: 5
  2393 ;; This function calls:
  2394 ;;		_buzzerDisparada
  2395 ;;		_ledDisparado
  2396 ;;		_mensagemInvadida
  2397 ;; This function is called by:
  2398 ;;		_main
  2399 ;; This function uses a non-reentrant model
  2400 ;;
  2401                           
  2402                           	psect	text12
  2403  006B36                     __ptext12:
  2404                           	callstack 0
  2405  006B36                     _casaInvadida:
  2406                           	callstack 25
  2407  006B36                     
  2408                           ;casaInvadida.c: 14:     int i, j;;casaInvadida.c: 15:     unsigned char k;;casaInvadida
      +                          .c: 17:     (*(volatile __near unsigned char*)0xF94) = 0x00;
  2409  006B36  0E00               	movlw	0
  2410  006B38  6E94               	movwf	148,c	;volatile
  2411                           
  2412                           ;casaInvadida.c: 18:     (*(volatile __near unsigned char*)0xF96) = 0x00;
  2413  006B3A  0E00               	movlw	0
  2414  006B3C  6E96               	movwf	150,c	;volatile
  2415                           
  2416                           ;casaInvadida.c: 21:     (*(volatile __near unsigned char*)0xF82) = 0x01;
  2417  006B3E  0E01               	movlw	1
  2418  006B40  6E82               	movwf	130,c	;volatile
  2419                           
  2420                           ;casaInvadida.c: 23:     (*(volatile __near unsigned char*)0xF84) = 0x01;
  2421  006B42  0E01               	movlw	1
  2422  006B44  6E84               	movwf	132,c	;volatile
  2423  006B46                     
  2424                           ;casaInvadida.c: 26:     mensagemInvadida();
  2425  006B46  EC9D  F037         	call	_mensagemInvadida	;wreg free
  2426  006B4A                     
  2427                           ;casaInvadida.c: 29:     buzzerDisparada();
  2428  006B4A  EC12  F036         	call	_buzzerDisparada	;wreg free
  2429  006B4E                     
  2430                           ;casaInvadida.c: 32:     ledDisparado();
  2431  006B4E  ECA8  F036         	call	_ledDisparado	;wreg free
  2432  006B52  0012               	return		;funcret
  2433  006B54                     __end_of_casaInvadida:
  2434                           	callstack 0
  2435                           
  2436 ;; *************** function _mensagemInvadida *****************
  2437 ;; Defined at:
  2438 ;;		line 73 in file "printf.c"
  2439 ;; Parameters:    Size  Location     Type
  2440 ;;		None
  2441 ;; Auto vars:     Size  Location     Type
  2442 ;;  msg            19    8[COMRAM] unsigned char [19]
  2443 ;;  i               2   27[COMRAM] int 
  2444 ;; Return value:  Size  Location     Type
  2445 ;;                  1    wreg      void 
  2446 ;; Registers used:
  2447 ;;		wreg, fsr1l, fsr1h, fsr2l, fsr2h, status,2, status,0, cstack
  2448 ;; Tracked objects:
  2449 ;;		On entry : 0/0
  2450 ;;		On exit  : 0/0
  2451 ;;		Unchanged: 0/0
  2452 ;; Data sizes:     COMRAM   BANK0   BANK1   BANK2   BANK3   BANK4   BANK5
  2453 ;;      Params:         0       0       0       0       0       0       0
  2454 ;;      Locals:        21       0       0       0       0       0       0
  2455 ;;      Temps:          0       0       0       0       0       0       0
  2456 ;;      Totals:        21       0       0       0       0       0       0
  2457 ;;Total ram usage:       21 bytes
  2458 ;; Hardware stack levels used: 1
  2459 ;; Hardware stack levels required when called: 4
  2460 ;; This function calls:
  2461 ;;		_lcdCommand
  2462 ;;		_lcdData
  2463 ;;		_lcdInit
  2464 ;; This function is called by:
  2465 ;;		_casaInvadida
  2466 ;; This function uses a non-reentrant model
  2467 ;;
  2468                           
  2469                           	psect	text13
  2470  006F3A                     __ptext13:
  2471                           	callstack 0
  2472  006F3A                     _mensagemInvadida:
  2473                           	callstack 25
  2474  006F3A                     
  2475                           ;printf.c: 76:     int i;;printf.c: 77:     char msg[19] = "Residencia Invadida";
  2476  006F3A  EE20  F043         	lfsr	2,mensagemInvadida@F28
  2477  006F3E  EE10  F009         	lfsr	1,mensagemInvadida@msg
  2478  006F42  0E12               	movlw	18
  2479  006F44                     u1911:
  2480  006F44  CFDB FFE3          	movff	plusw2,plusw1
  2481  006F48  06E8               	decf	wreg,f,c
  2482  006F4A  E2FC               	bc	u1911
  2483  006F4C                     
  2484                           ;printf.c: 80:     lcdInit();
  2485  006F4C  EC10  F038         	call	_lcdInit	;wreg free
  2486  006F50                     
  2487                           ;printf.c: 83:     lcdCommand(0xC3);
  2488  006F50  0EC3               	movlw	195
  2489  006F52  ECC8  F038         	call	_lcdCommand
  2490  006F56                     
  2491                           ;printf.c: 86:     for(i=0; i<19; i++){
  2492  006F56  0E00               	movlw	0
  2493  006F58  6E1D               	movwf	(mensagemInvadida@i+1)^0,c
  2494  006F5A  0E00               	movlw	0
  2495  006F5C  6E1C               	movwf	mensagemInvadida@i^0,c
  2496  006F5E                     l2418:
  2497                           
  2498                           ;printf.c: 87:         lcdData(msg[i]);
  2499  006F5E  0E09               	movlw	low mensagemInvadida@msg
  2500  006F60  241C               	addwf	mensagemInvadida@i^0,w,c
  2501  006F62  6ED9               	movwf	fsr2l,c
  2502  006F64  0E00               	movlw	high mensagemInvadida@msg
  2503  006F66  201D               	addwfc	(mensagemInvadida@i+1)^0,w,c
  2504  006F68  6EDA               	movwf	fsr2h,c
  2505  006F6A  50DF               	movf	indf2,w,c
  2506  006F6C  EC53  F036         	call	_lcdData
  2507  006F70                     
  2508                           ;printf.c: 88:         if (i == 10) {
  2509  006F70  0E0A               	movlw	10
  2510  006F72  181C               	xorwf	mensagemInvadida@i^0,w,c
  2511  006F74  101D               	iorwf	(mensagemInvadida@i+1)^0,w,c
  2512  006F76  A4D8               	btfss	status,2,c
  2513  006F78  EFC0  F037         	goto	u1921
  2514  006F7C  EFC2  F037         	goto	u1920
  2515  006F80                     u1921:
  2516  006F80  EFC5  F037         	goto	l2424
  2517  006F84                     u1920:
  2518  006F84                     
  2519                           ;printf.c: 89:             lcdCommand(0x94);
  2520  006F84  0E94               	movlw	148
  2521  006F86  ECC8  F038         	call	_lcdCommand
  2522  006F8A                     l2424:
  2523                           
  2524                           ;printf.c: 91:     }
  2525  006F8A  4A1C               	infsnz	mensagemInvadida@i^0,f,c
  2526  006F8C  2A1D               	incf	(mensagemInvadida@i+1)^0,f,c
  2527  006F8E  BE1D               	btfsc	(mensagemInvadida@i+1)^0,7,c
  2528  006F90  EFD3  F037         	goto	u1931
  2529  006F94  501D               	movf	(mensagemInvadida@i+1)^0,w,c
  2530  006F96  E109               	bnz	u1930
  2531  006F98  0E13               	movlw	19
  2532  006F9A  5C1C               	subwf	mensagemInvadida@i^0,w,c
  2533  006F9C  A0D8               	btfss	status,0,c
  2534  006F9E  EFD3  F037         	goto	u1931
  2535  006FA2  EFD5  F037         	goto	u1930
  2536  006FA6                     u1931:
  2537  006FA6  EFAF  F037         	goto	l2418
  2538  006FAA                     u1930:
  2539  006FAA  0012               	return		;funcret
  2540  006FAC                     __end_of_mensagemInvadida:
  2541                           	callstack 0
  2542                           
  2543 ;; *************** function _ledDisparado *****************
  2544 ;; Defined at:
  2545 ;;		line 7 in file "ledDisparado.c"
  2546 ;; Parameters:    Size  Location     Type
  2547 ;;		None
  2548 ;; Auto vars:     Size  Location     Type
  2549 ;;  i               1    6[COMRAM] unsigned char 
  2550 ;; Return value:  Size  Location     Type
  2551 ;;                  1    wreg      void 
  2552 ;; Registers used:
  2553 ;;		wreg, status,2, status,0, cstack
  2554 ;; Tracked objects:
  2555 ;;		On entry : 0/0
  2556 ;;		On exit  : 0/0
  2557 ;;		Unchanged: 0/0
  2558 ;; Data sizes:     COMRAM   BANK0   BANK1   BANK2   BANK3   BANK4   BANK5
  2559 ;;      Params:         0       0       0       0       0       0       0
  2560 ;;      Locals:         1       0       0       0       0       0       0
  2561 ;;      Temps:          0       0       0       0       0       0       0
  2562 ;;      Totals:         1       0       0       0       0       0       0
  2563 ;;Total ram usage:        1 bytes
  2564 ;; Hardware stack levels used: 1
  2565 ;; Hardware stack levels required when called: 1
  2566 ;; This function calls:
  2567 ;;		_delay
  2568 ;; This function is called by:
  2569 ;;		_casaInvadida
  2570 ;; This function uses a non-reentrant model
  2571 ;;
  2572                           
  2573                           	psect	text14
  2574  006D50                     __ptext14:
  2575                           	callstack 0
  2576  006D50                     _ledDisparado:
  2577                           	callstack 28
  2578  006D50                     
  2579                           ;ledDisparado.c: 8:     (*(volatile __near unsigned char*)0xF95) = 0x00;
  2580  006D50  0E00               	movlw	0
  2581  006D52  6E95               	movwf	149,c	;volatile
  2582                           
  2583                           ;ledDisparado.c: 9:     (*(volatile __near unsigned char*)0xF92) = 0x00;
  2584  006D54  0E00               	movlw	0
  2585  006D56  6E92               	movwf	146,c	;volatile
  2586  006D58                     
  2587                           ;ledDisparado.c: 11:     (((*(volatile __near unsigned char*)0xFF1)) &= ~(1<<(7)));
  2588  006D58  9EF1               	bcf	241,7,c	;volatile
  2589  006D5A                     
  2590                           ;ledDisparado.c: 12:     (*(volatile __near unsigned char*)0xFC1) = 0x0E;
  2591  006D5A  0E0E               	movlw	14
  2592  006D5C  6EC1               	movwf	193,c	;volatile
  2593  006D5E                     
  2594                           ;ledDisparado.c: 13:     (*(volatile __near unsigned char*)0xF93) = 0xFD;
  2595  006D5E  0EFD               	movlw	253
  2596  006D60  6E93               	movwf	147,c	;volatile
  2597  006D62                     
  2598                           ;ledDisparado.c: 14:     (*(volatile __near unsigned char*)0xF81) = 0x00;
  2599  006D62  0E00               	movlw	0
  2600  006D64  6E81               	movwf	129,c	;volatile
  2601  006D66                     
  2602                           ;ledDisparado.c: 17:     unsigned char i;;ledDisparado.c: 21:         (*(volatile __near
      +                           unsigned char*)0xF83) = 0xff;
  2603  006D66  6883               	setf	131,c	;volatile
  2604  006D68                     
  2605                           ;ledDisparado.c: 22:         delay(300);
  2606  006D68  0E01               	movlw	1
  2607  006D6A  6E02               	movwf	(delay@valor+1)^0,c
  2608  006D6C  0E2C               	movlw	44
  2609  006D6E  6E01               	movwf	delay@valor^0,c
  2610  006D70  ECD4  F036         	call	_delay	;wreg free
  2611  006D74                     
  2612                           ;ledDisparado.c: 24:         (*(volatile __near unsigned char*)0xF83) = 0x00;
  2613  006D74  0E00               	movlw	0
  2614  006D76  6E83               	movwf	131,c	;volatile
  2615  006D78                     
  2616                           ;ledDisparado.c: 25:         delay(300);
  2617  006D78  0E01               	movlw	1
  2618  006D7A  6E02               	movwf	(delay@valor+1)^0,c
  2619  006D7C  0E2C               	movlw	44
  2620  006D7E  6E01               	movwf	delay@valor^0,c
  2621  006D80  ECD4  F036         	call	_delay	;wreg free
  2622  006D84                     
  2623                           ;ledDisparado.c: 28:         (((*(volatile __near unsigned char*)0xF80)) |= (1<<(5)));
  2624  006D84  8A80               	bsf	128,5,c	;volatile
  2625  006D86                     
  2626                           ;ledDisparado.c: 29:         (((*(volatile __near unsigned char*)0xF80)) |= (1<<(4)));
  2627  006D86  8880               	bsf	128,4,c	;volatile
  2628  006D88                     
  2629                           ;ledDisparado.c: 30:         (((*(volatile __near unsigned char*)0xF80)) |= (1<<(3)));
  2630  006D88  8680               	bsf	128,3,c	;volatile
  2631  006D8A                     
  2632                           ;ledDisparado.c: 31:         (((*(volatile __near unsigned char*)0xF80)) |= (1<<(2)));
  2633  006D8A  8480               	bsf	128,2,c	;volatile
  2634  006D8C                     
  2635                           ;ledDisparado.c: 32:         (*(volatile __near unsigned char*)0xF83) = 0x00;
  2636  006D8C  0E00               	movlw	0
  2637  006D8E  6E83               	movwf	131,c	;volatile
  2638  006D90                     
  2639                           ;ledDisparado.c: 34:         for(i = 0; i < 10; i++);
  2640  006D90  0E00               	movlw	0
  2641  006D92  6E07               	movwf	ledDisparado@i^0,c
  2642  006D94                     l2402:
  2643  006D94  2A07               	incf	ledDisparado@i^0,f,c
  2644  006D96  0E09               	movlw	9
  2645  006D98  6407               	cpfsgt	ledDisparado@i^0,c
  2646  006D9A  EFD1  F036         	goto	u1901
  2647  006D9E  EFD3  F036         	goto	u1900
  2648  006DA2                     u1901:
  2649  006DA2  EFCA  F036         	goto	l2402
  2650  006DA6                     u1900:
  2651  006DA6  0012               	return		;funcret
  2652  006DA8                     __end_of_ledDisparado:
  2653                           	callstack 0
  2654                           
  2655 ;; *************** function _buzzerDisparada *****************
  2656 ;; Defined at:
  2657 ;;		line 32 in file "buzzer.c"
  2658 ;; Parameters:    Size  Location     Type
  2659 ;;		None
  2660 ;; Auto vars:     Size  Location     Type
  2661 ;;  i               2    0        int 
  2662 ;; Return value:  Size  Location     Type
  2663 ;;                  1    wreg      void 
  2664 ;; Registers used:
  2665 ;;		wreg, status,2, status,0, prodl, prodh, cstack
  2666 ;; Tracked objects:
  2667 ;;		On entry : 0/0
  2668 ;;		On exit  : 0/0
  2669 ;;		Unchanged: 0/0
  2670 ;; Data sizes:     COMRAM   BANK0   BANK1   BANK2   BANK3   BANK4   BANK5
  2671 ;;      Params:         0       0       0       0       0       0       0
  2672 ;;      Locals:         0       0       0       0       0       0       0
  2673 ;;      Temps:          0       0       0       0       0       0       0
  2674 ;;      Totals:         0       0       0       0       0       0       0
  2675 ;;Total ram usage:        0 bytes
  2676 ;; Hardware stack levels used: 1
  2677 ;; Hardware stack levels required when called: 2
  2678 ;; This function calls:
  2679 ;;		_delay
  2680 ;;		_pwmFrequency
  2681 ;;		_pwmInit
  2682 ;;		_pwmSet2
  2683 ;; This function is called by:
  2684 ;;		_casaInvadida
  2685 ;; This function uses a non-reentrant model
  2686 ;;
  2687                           
  2688                           	psect	text15
  2689  006C24                     __ptext15:
  2690                           	callstack 0
  2691  006C24                     _buzzerDisparada:
  2692                           	callstack 27
  2693  006C24                     
  2694                           ;buzzer.c: 34:     int i;;buzzer.c: 35:     pwmInit();
  2695  006C24  EC77  F035         	call	_pwmInit	;wreg free
  2696                           
  2697                           ;buzzer.c: 37:     pwmFrequency(10000);
  2698  006C28  0E27               	movlw	39
  2699  006C2A  6E10               	movwf	(pwmFrequency@freq+1)^0,c
  2700  006C2C  0E10               	movlw	16
  2701  006C2E  6E0F               	movwf	pwmFrequency@freq^0,c
  2702  006C30  ECAA  F035         	call	_pwmFrequency	;wreg free
  2703  006C34                     
  2704                           ;buzzer.c: 38:     pwmSet2(50);
  2705  006C34  0E32               	movlw	50
  2706  006C36  EC31  F037         	call	_pwmSet2
  2707  006C3A                     
  2708                           ;buzzer.c: 39:     delay(400);
  2709  006C3A  0E01               	movlw	1
  2710  006C3C  6E02               	movwf	(delay@valor+1)^0,c
  2711  006C3E  0E90               	movlw	144
  2712  006C40  6E01               	movwf	delay@valor^0,c
  2713  006C42  ECD4  F036         	call	_delay	;wreg free
  2714                           
  2715                           ;buzzer.c: 40:     pwmSet2(0);
  2716  006C46  0E00               	movlw	0
  2717  006C48  EC31  F037         	call	_pwmSet2
  2718  006C4C                     
  2719                           ;buzzer.c: 41:     delay(150);
  2720  006C4C  0E00               	movlw	0
  2721  006C4E  6E02               	movwf	(delay@valor+1)^0,c
  2722  006C50  0E96               	movlw	150
  2723  006C52  6E01               	movwf	delay@valor^0,c
  2724  006C54  ECD4  F036         	call	_delay	;wreg free
  2725  006C58  0012               	return		;funcret
  2726  006C5A                     __end_of_buzzerDisparada:
  2727                           	callstack 0
  2728                           
  2729 ;; *************** function _armada *****************
  2730 ;; Defined at:
  2731 ;;		line 14 in file "armada.c"
  2732 ;; Parameters:    Size  Location     Type
  2733 ;;		None
  2734 ;; Auto vars:     Size  Location     Type
  2735 ;;  l               2   29[COMRAM] int 
  2736 ;;  temp            1   28[COMRAM] unsigned char 
  2737 ;;  j               1   27[COMRAM] unsigned char 
  2738 ;; Return value:  Size  Location     Type
  2739 ;;                  1    wreg      void 
  2740 ;; Registers used:
  2741 ;;		wreg, fsr1l, fsr1h, fsr2l, fsr2h, status,2, status,0, prodl, prodh, cstack
  2742 ;; Tracked objects:
  2743 ;;		On entry : 0/0
  2744 ;;		On exit  : 0/0
  2745 ;;		Unchanged: 0/0
  2746 ;; Data sizes:     COMRAM   BANK0   BANK1   BANK2   BANK3   BANK4   BANK5
  2747 ;;      Params:         0       0       0       0       0       0       0
  2748 ;;      Locals:         4       0       0       0       0       0       0
  2749 ;;      Temps:          0       0       0       0       0       0       0
  2750 ;;      Totals:         4       0       0       0       0       0       0
  2751 ;;Total ram usage:        4 bytes
  2752 ;; Hardware stack levels used: 1
  2753 ;; Hardware stack levels required when called: 5
  2754 ;; This function calls:
  2755 ;;		_buzzerArmada
  2756 ;;		_delay
  2757 ;;		_lcdCommand
  2758 ;;		_mensagemArmada
  2759 ;; This function is called by:
  2760 ;;		_main
  2761 ;; This function uses a non-reentrant model
  2762 ;;
  2763                           
  2764                           	psect	text16
  2765  0076A8                     __ptext16:
  2766                           	callstack 0
  2767  0076A8                     _armada:
  2768                           	callstack 25
  2769  0076A8                     
  2770                           ;armada.c: 16:     unsigned char j, temp;;armada.c: 17:     int l;;armada.c: 20:     (*(
      +                          volatile __near unsigned char*)0xF95) = 0x00;
  2771  0076A8  0E00               	movlw	0
  2772  0076AA  6E95               	movwf	149,c	;volatile
  2773                           
  2774                           ;armada.c: 21:     (*(volatile __near unsigned char*)0xF92) = 0x00;
  2775  0076AC  0E00               	movlw	0
  2776  0076AE  6E92               	movwf	146,c	;volatile
  2777  0076B0                     
  2778                           ;armada.c: 23:     (((*(volatile __near unsigned char*)0xFF1)) &= ~(1<<(7)));
  2779  0076B0  9EF1               	bcf	241,7,c	;volatile
  2780  0076B2                     
  2781                           ;armada.c: 24:     (*(volatile __near unsigned char*)0xFC1) = 0x0E;
  2782  0076B2  0E0E               	movlw	14
  2783  0076B4  6EC1               	movwf	193,c	;volatile
  2784  0076B6                     
  2785                           ;armada.c: 25:     (*(volatile __near unsigned char*)0xF93) = 0xFD;
  2786  0076B6  0EFD               	movlw	253
  2787  0076B8  6E93               	movwf	147,c	;volatile
  2788  0076BA                     
  2789                           ;armada.c: 26:     (*(volatile __near unsigned char*)0xF81) = 0x00;
  2790  0076BA  0E00               	movlw	0
  2791  0076BC  6E81               	movwf	129,c	;volatile
  2792                           
  2793                           ;armada.c: 29:     (((*(volatile __near unsigned char*)0xF80)) &= ~(1<<(5)));
  2794  0076BE  9A80               	bcf	128,5,c	;volatile
  2795                           
  2796                           ;armada.c: 30:     (((*(volatile __near unsigned char*)0xF80)) &= ~(1<<(4)));
  2797  0076C0  9880               	bcf	128,4,c	;volatile
  2798                           
  2799                           ;armada.c: 31:     (((*(volatile __near unsigned char*)0xF80)) &= ~(1<<(3)));
  2800  0076C2  9680               	bcf	128,3,c	;volatile
  2801                           
  2802                           ;armada.c: 32:     (((*(volatile __near unsigned char*)0xF80)) &= ~(1<<(2)));
  2803  0076C4  9480               	bcf	128,2,c	;volatile
  2804  0076C6                     
  2805                           ;armada.c: 35:     mensagemArmada();
  2806  0076C6  EC4C  F038         	call	_mensagemArmada	;wreg free
  2807  0076CA                     
  2808                           ;armada.c: 38:     buzzerArmada();
  2809  0076CA  EC02  F037         	call	_buzzerArmada	;wreg free
  2810  0076CE                     
  2811                           ;armada.c: 41:     for(l=0; l< 5000; l++){
  2812  0076CE  0E00               	movlw	0
  2813  0076D0  6E1F               	movwf	(armada@l+1)^0,c
  2814  0076D2  0E00               	movlw	0
  2815  0076D4  6E1E               	movwf	armada@l^0,c
  2816  0076D6                     l2562:
  2817                           
  2818                           ;armada.c: 42:         for(j = 0; j< 100; j++);
  2819  0076D6  0E00               	movlw	0
  2820  0076D8  6E1C               	movwf	armada@j^0,c
  2821  0076DA                     l2568:
  2822  0076DA  2A1C               	incf	armada@j^0,f,c
  2823  0076DC  0E63               	movlw	99
  2824  0076DE  641C               	cpfsgt	armada@j^0,c
  2825  0076E0  EF74  F03B         	goto	u2061
  2826  0076E4  EF76  F03B         	goto	u2060
  2827  0076E8                     u2061:
  2828  0076E8  EF6D  F03B         	goto	l2568
  2829  0076EC                     u2060:
  2830  0076EC                     
  2831                           ;armada.c: 43:     }
  2832  0076EC  4A1E               	infsnz	armada@l^0,f,c
  2833  0076EE  2A1F               	incf	(armada@l+1)^0,f,c
  2834  0076F0  BE1F               	btfsc	(armada@l+1)^0,7,c
  2835  0076F2  EF84  F03B         	goto	u2071
  2836  0076F6  0E88               	movlw	136
  2837  0076F8  5C1E               	subwf	armada@l^0,w,c
  2838  0076FA  0E13               	movlw	19
  2839  0076FC  581F               	subwfb	(armada@l+1)^0,w,c
  2840  0076FE  A0D8               	btfss	status,0,c
  2841  007700  EF84  F03B         	goto	u2071
  2842  007704  EF86  F03B         	goto	u2070
  2843  007708                     u2071:
  2844  007708  EF6B  F03B         	goto	l2562
  2845  00770C                     u2070:
  2846  00770C                     
  2847                           ;armada.c: 46:     for(l = 0; l < 4; l++){
  2848  00770C  0E00               	movlw	0
  2849  00770E  6E1F               	movwf	(armada@l+1)^0,c
  2850  007710  0E00               	movlw	0
  2851  007712  6E1E               	movwf	armada@l^0,c
  2852  007714                     l257:
  2853                           
  2854                           ;armada.c: 47:         (*(volatile __near unsigned char*)0xF83) = 0xff;
  2855  007714  6883               	setf	131,c	;volatile
  2856  007716                     
  2857                           ;armada.c: 48:         delay(100);
  2858  007716  0E00               	movlw	0
  2859  007718  6E02               	movwf	(delay@valor+1)^0,c
  2860  00771A  0E64               	movlw	100
  2861  00771C  6E01               	movwf	delay@valor^0,c
  2862  00771E  ECD4  F036         	call	_delay	;wreg free
  2863  007722                     
  2864                           ;armada.c: 50:         (*(volatile __near unsigned char*)0xF83) = 0x00;
  2865  007722  0E00               	movlw	0
  2866  007724  6E83               	movwf	131,c	;volatile
  2867  007726                     
  2868                           ;armada.c: 51:         delay(100);
  2869  007726  0E00               	movlw	0
  2870  007728  6E02               	movwf	(delay@valor+1)^0,c
  2871  00772A  0E64               	movlw	100
  2872  00772C  6E01               	movwf	delay@valor^0,c
  2873  00772E  ECD4  F036         	call	_delay	;wreg free
  2874  007732                     
  2875                           ;armada.c: 52:     }
  2876  007732  4A1E               	infsnz	armada@l^0,f,c
  2877  007734  2A1F               	incf	(armada@l+1)^0,f,c
  2878  007736  BE1F               	btfsc	(armada@l+1)^0,7,c
  2879  007738  EFA7  F03B         	goto	u2081
  2880  00773C  501F               	movf	(armada@l+1)^0,w,c
  2881  00773E  E109               	bnz	u2080
  2882  007740  0E04               	movlw	4
  2883  007742  5C1E               	subwf	armada@l^0,w,c
  2884  007744  A0D8               	btfss	status,0,c
  2885  007746  EFA7  F03B         	goto	u2081
  2886  00774A  EFA9  F03B         	goto	u2080
  2887  00774E                     u2081:
  2888  00774E  EF8A  F03B         	goto	l257
  2889  007752                     u2080:
  2890  007752                     
  2891                           ;armada.c: 54:     (*(volatile __near unsigned char*)0xF83) = 0xff;
  2892  007752  6883               	setf	131,c	;volatile
  2893  007754                     
  2894                           ;armada.c: 55:     delay(100);
  2895  007754  0E00               	movlw	0
  2896  007756  6E02               	movwf	(delay@valor+1)^0,c
  2897  007758  0E64               	movlw	100
  2898  00775A  6E01               	movwf	delay@valor^0,c
  2899  00775C  ECD4  F036         	call	_delay	;wreg free
  2900  007760                     
  2901                           ;armada.c: 58:     for(l = 0; l< 1000; l++){
  2902  007760  0E00               	movlw	0
  2903  007762  6E1F               	movwf	(armada@l+1)^0,c
  2904  007764  0E00               	movlw	0
  2905  007766  6E1E               	movwf	armada@l^0,c
  2906  007768                     l2600:
  2907                           
  2908                           ;armada.c: 59:         (((*(volatile __near unsigned char*)0xF80)) |= (1<<(4)));
  2909  007768  8880               	bsf	128,4,c	;volatile
  2910  00776A                     
  2911                           ;armada.c: 60:         (*(volatile __near unsigned char*)0xF83) = 0x37;
  2912  00776A  0E37               	movlw	55
  2913  00776C  6E83               	movwf	131,c	;volatile
  2914  00776E                     
  2915                           ;armada.c: 61:         for(temp = 0; temp < 100; temp++);
  2916  00776E  0E00               	movlw	0
  2917  007770  6E1D               	movwf	armada@temp^0,c
  2918  007772                     l2610:
  2919  007772  2A1D               	incf	armada@temp^0,f,c
  2920  007774  0E63               	movlw	99
  2921  007776  641D               	cpfsgt	armada@temp^0,c
  2922  007778  EFC0  F03B         	goto	u2091
  2923  00777C  EFC2  F03B         	goto	u2090
  2924  007780                     u2091:
  2925  007780  EFB9  F03B         	goto	l2610
  2926  007784                     u2090:
  2927  007784                     
  2928                           ;armada.c: 62:         (((*(volatile __near unsigned char*)0xF80)) &= ~(1<<(4)));
  2929  007784  9880               	bcf	128,4,c	;volatile
  2930                           
  2931                           ;armada.c: 63:         (((*(volatile __near unsigned char*)0xF80)) |= (1<<(3)));
  2932  007786  8680               	bsf	128,3,c	;volatile
  2933  007788                     
  2934                           ;armada.c: 64:         (*(volatile __near unsigned char*)0xF83) = 0x3f;
  2935  007788  0E3F               	movlw	63
  2936  00778A  6E83               	movwf	131,c	;volatile
  2937  00778C                     
  2938                           ;armada.c: 65:         for(temp = 0; temp < 100; temp++);
  2939  00778C  0E00               	movlw	0
  2940  00778E  6E1D               	movwf	armada@temp^0,c
  2941  007790                     l2624:
  2942  007790  2A1D               	incf	armada@temp^0,f,c
  2943  007792  0E63               	movlw	99
  2944  007794  641D               	cpfsgt	armada@temp^0,c
  2945  007796  EFCF  F03B         	goto	u2101
  2946  00779A  EFD1  F03B         	goto	u2100
  2947  00779E                     u2101:
  2948  00779E  EFC8  F03B         	goto	l2624
  2949  0077A2                     u2100:
  2950  0077A2                     
  2951                           ;armada.c: 66:     }
  2952  0077A2  4A1E               	infsnz	armada@l^0,f,c
  2953  0077A4  2A1F               	incf	(armada@l+1)^0,f,c
  2954  0077A6  BE1F               	btfsc	(armada@l+1)^0,7,c
  2955  0077A8  EFDF  F03B         	goto	u2111
  2956  0077AC  0EE8               	movlw	232
  2957  0077AE  5C1E               	subwf	armada@l^0,w,c
  2958  0077B0  0E03               	movlw	3
  2959  0077B2  581F               	subwfb	(armada@l+1)^0,w,c
  2960  0077B4  A0D8               	btfss	status,0,c
  2961  0077B6  EFDF  F03B         	goto	u2111
  2962  0077BA  EFE1  F03B         	goto	u2110
  2963  0077BE                     u2111:
  2964  0077BE  EFB4  F03B         	goto	l2600
  2965  0077C2                     u2110:
  2966  0077C2                     
  2967                           ;armada.c: 69:     (((*(volatile __near unsigned char*)0xF80)) &= ~(1<<(5)));
  2968  0077C2  9A80               	bcf	128,5,c	;volatile
  2969                           
  2970                           ;armada.c: 70:     (((*(volatile __near unsigned char*)0xF80)) &= ~(1<<(4)));
  2971  0077C4  9880               	bcf	128,4,c	;volatile
  2972                           
  2973                           ;armada.c: 71:     (((*(volatile __near unsigned char*)0xF80)) &= ~(1<<(3)));
  2974  0077C6  9680               	bcf	128,3,c	;volatile
  2975                           
  2976                           ;armada.c: 72:     (((*(volatile __near unsigned char*)0xF80)) &= ~(1<<(2)));
  2977  0077C8  9480               	bcf	128,2,c	;volatile
  2978  0077CA                     
  2979                           ;armada.c: 74:     lcdCommand(0x01);
  2980  0077CA  0E01               	movlw	1
  2981  0077CC  ECC8  F038         	call	_lcdCommand
  2982  0077D0  0012               	return		;funcret
  2983  0077D2                     __end_of_armada:
  2984                           	callstack 0
  2985                           
  2986 ;; *************** function _mensagemArmada *****************
  2987 ;; Defined at:
  2988 ;;		line 53 in file "printf.c"
  2989 ;; Parameters:    Size  Location     Type
  2990 ;;		None
  2991 ;; Auto vars:     Size  Location     Type
  2992 ;;  msg            14   11[COMRAM] unsigned char [14]
  2993 ;;  i               2   25[COMRAM] int 
  2994 ;; Return value:  Size  Location     Type
  2995 ;;                  1    wreg      void 
  2996 ;; Registers used:
  2997 ;;		wreg, fsr1l, fsr1h, fsr2l, fsr2h, status,2, status,0, cstack
  2998 ;; Tracked objects:
  2999 ;;		On entry : 0/0
  3000 ;;		On exit  : 0/0
  3001 ;;		Unchanged: 0/0
  3002 ;; Data sizes:     COMRAM   BANK0   BANK1   BANK2   BANK3   BANK4   BANK5
  3003 ;;      Params:         0       0       0       0       0       0       0
  3004 ;;      Locals:        16       0       0       0       0       0       0
  3005 ;;      Temps:          0       0       0       0       0       0       0
  3006 ;;      Totals:        16       0       0       0       0       0       0
  3007 ;;Total ram usage:       16 bytes
  3008 ;; Hardware stack levels used: 1
  3009 ;; Hardware stack levels required when called: 4
  3010 ;; This function calls:
  3011 ;;		_lcdCommand
  3012 ;;		_lcdData
  3013 ;;		_lcdInit
  3014 ;;		_lcdPosition
  3015 ;; This function is called by:
  3016 ;;		_armada
  3017 ;; This function uses a non-reentrant model
  3018 ;;
  3019                           
  3020                           	psect	text17
  3021  007098                     __ptext17:
  3022                           	callstack 0
  3023  007098                     _mensagemArmada:
  3024                           	callstack 25
  3025  007098                     
  3026                           ;printf.c: 54:     int i;;printf.c: 55:     char msg[14] = "Central Armada";
  3027  007098  EE20  F068         	lfsr	2,mensagemArmada@F24
  3028  00709C  EE10  F00C         	lfsr	1,mensagemArmada@msg
  3029  0070A0  0E0D               	movlw	13
  3030  0070A2                     u1941:
  3031  0070A2  CFDB FFE3          	movff	plusw2,plusw1
  3032  0070A6  06E8               	decf	wreg,f,c
  3033  0070A8  E2FC               	bc	u1941
  3034  0070AA                     
  3035                           ;printf.c: 58:     lcdInit();
  3036  0070AA  EC10  F038         	call	_lcdInit	;wreg free
  3037  0070AE                     
  3038                           ;printf.c: 61:     lcdCommand(0x01);
  3039  0070AE  0E01               	movlw	1
  3040  0070B0  ECC8  F038         	call	_lcdCommand
  3041  0070B4                     
  3042                           ;printf.c: 62:     lcdPosition(4, 0);
  3043  0070B4  0E00               	movlw	0
  3044  0070B6  6E09               	movwf	lcdPosition@linha^0,c
  3045  0070B8  0E04               	movlw	4
  3046  0070BA  EC07  F039         	call	_lcdPosition
  3047  0070BE                     
  3048                           ;printf.c: 65:     for(i=0;i<14;i++) {
  3049  0070BE  0E00               	movlw	0
  3050  0070C0  6E1B               	movwf	(mensagemArmada@i+1)^0,c
  3051  0070C2  0E00               	movlw	0
  3052  0070C4  6E1A               	movwf	mensagemArmada@i^0,c
  3053  0070C6                     l2450:
  3054                           
  3055                           ;printf.c: 66:         lcdData(msg[i]);
  3056  0070C6  0E0C               	movlw	low mensagemArmada@msg
  3057  0070C8  241A               	addwf	mensagemArmada@i^0,w,c
  3058  0070CA  6ED9               	movwf	fsr2l,c
  3059  0070CC  0E00               	movlw	high mensagemArmada@msg
  3060  0070CE  201B               	addwfc	(mensagemArmada@i+1)^0,w,c
  3061  0070D0  6EDA               	movwf	fsr2h,c
  3062  0070D2  50DF               	movf	indf2,w,c
  3063  0070D4  EC53  F036         	call	_lcdData
  3064  0070D8                     
  3065                           ;printf.c: 67:         if (i == 7) {
  3066  0070D8  0E07               	movlw	7
  3067  0070DA  181A               	xorwf	mensagemArmada@i^0,w,c
  3068  0070DC  101B               	iorwf	(mensagemArmada@i+1)^0,w,c
  3069  0070DE  A4D8               	btfss	status,2,c
  3070  0070E0  EF74  F038         	goto	u1951
  3071  0070E4  EF76  F038         	goto	u1950
  3072  0070E8                     u1951:
  3073  0070E8  EF79  F038         	goto	l2456
  3074  0070EC                     u1950:
  3075  0070EC                     
  3076                           ;printf.c: 68:             lcdCommand(0xC4);
  3077  0070EC  0EC4               	movlw	196
  3078  0070EE  ECC8  F038         	call	_lcdCommand
  3079  0070F2                     l2456:
  3080                           
  3081                           ;printf.c: 70:     }
  3082  0070F2  4A1A               	infsnz	mensagemArmada@i^0,f,c
  3083  0070F4  2A1B               	incf	(mensagemArmada@i+1)^0,f,c
  3084  0070F6  BE1B               	btfsc	(mensagemArmada@i+1)^0,7,c
  3085  0070F8  EF87  F038         	goto	u1961
  3086  0070FC  501B               	movf	(mensagemArmada@i+1)^0,w,c
  3087  0070FE  E109               	bnz	u1960
  3088  007100  0E0E               	movlw	14
  3089  007102  5C1A               	subwf	mensagemArmada@i^0,w,c
  3090  007104  A0D8               	btfss	status,0,c
  3091  007106  EF87  F038         	goto	u1961
  3092  00710A  EF89  F038         	goto	u1960
  3093  00710E                     u1961:
  3094  00710E  EF63  F038         	goto	l2450
  3095  007112                     u1960:
  3096  007112  0012               	return		;funcret
  3097  007114                     __end_of_mensagemArmada:
  3098                           	callstack 0
  3099                           
  3100 ;; *************** function _lcdPosition *****************
  3101 ;; Defined at:
  3102 ;;		line 9 in file "lcdPosition.c"
  3103 ;; Parameters:    Size  Location     Type
  3104 ;;  coluna          1    wreg     unsigned char 
  3105 ;;  linha           1    8[COMRAM] unsigned char 
  3106 ;; Auto vars:     Size  Location     Type
  3107 ;;  coluna          1   10[COMRAM] unsigned char 
  3108 ;;  comando         1    9[COMRAM] unsigned char 
  3109 ;; Return value:  Size  Location     Type
  3110 ;;                  1    wreg      void 
  3111 ;; Registers used:
  3112 ;;		wreg, status,2, status,0, cstack
  3113 ;; Tracked objects:
  3114 ;;		On entry : 0/0
  3115 ;;		On exit  : 0/0
  3116 ;;		Unchanged: 0/0
  3117 ;; Data sizes:     COMRAM   BANK0   BANK1   BANK2   BANK3   BANK4   BANK5
  3118 ;;      Params:         1       0       0       0       0       0       0
  3119 ;;      Locals:         2       0       0       0       0       0       0
  3120 ;;      Temps:          0       0       0       0       0       0       0
  3121 ;;      Totals:         3       0       0       0       0       0       0
  3122 ;;Total ram usage:        3 bytes
  3123 ;; Hardware stack levels used: 1
  3124 ;; Hardware stack levels required when called: 3
  3125 ;; This function calls:
  3126 ;;		_lcdCommand
  3127 ;; This function is called by:
  3128 ;;		_mensagemInicial
  3129 ;;		_mensagemDesarmada
  3130 ;;		_mensagemArmada
  3131 ;; This function uses a non-reentrant model
  3132 ;;
  3133                           
  3134                           	psect	text18
  3135  00720E                     __ptext18:
  3136                           	callstack 0
  3137  00720E                     _lcdPosition:
  3138                           	callstack 26
  3139                           
  3140                           ;incstack = 0
  3141                           ;lcdPosition@coluna stored from wreg
  3142  00720E  6E0B               	movwf	lcdPosition@coluna^0,c
  3143  007210                     
  3144                           ;lcdPosition.c: 11:     char comando = 0;
  3145  007210  0E00               	movlw	0
  3146  007212  6E0A               	movwf	lcdPosition@comando^0,c
  3147  007214                     
  3148                           ;lcdPosition.c: 13:     if(linha==0) comando = 0x80 + linha;
  3149  007214  5009               	movf	lcdPosition@linha^0,w,c
  3150  007216  A4D8               	btfss	status,2,c
  3151  007218  EF10  F039         	goto	u1831
  3152  00721C  EF12  F039         	goto	u1830
  3153  007220                     u1831:
  3154  007220  EF15  F039         	goto	l2338
  3155  007224                     u1830:
  3156  007224  5009               	movf	lcdPosition@linha^0,w,c
  3157  007226  0F80               	addlw	128
  3158  007228  6E0A               	movwf	lcdPosition@comando^0,c
  3159  00722A                     l2338:
  3160                           
  3161                           ;lcdPosition.c: 14:     if(linha == 0) comando = 0x80 + coluna;
  3162  00722A  5009               	movf	lcdPosition@linha^0,w,c
  3163  00722C  A4D8               	btfss	status,2,c
  3164  00722E  EF1B  F039         	goto	u1841
  3165  007232  EF1D  F039         	goto	u1840
  3166  007236                     u1841:
  3167  007236  EF20  F039         	goto	l2342
  3168  00723A                     u1840:
  3169  00723A  500B               	movf	lcdPosition@coluna^0,w,c
  3170  00723C  0F80               	addlw	128
  3171  00723E  6E0A               	movwf	lcdPosition@comando^0,c
  3172  007240                     l2342:
  3173                           
  3174                           ;lcdPosition.c: 16:     if(linha == 0 && comando != 0x01) comando = 0x80 + coluna;
  3175  007240  5009               	movf	lcdPosition@linha^0,w,c
  3176  007242  A4D8               	btfss	status,2,c
  3177  007244  EF26  F039         	goto	u1851
  3178  007248  EF28  F039         	goto	u1850
  3179  00724C                     u1851:
  3180  00724C  EF33  F039         	goto	l238
  3181  007250                     u1850:
  3182  007250  040A               	decf	lcdPosition@comando^0,w,c
  3183  007252  B4D8               	btfsc	status,2,c
  3184  007254  EF2E  F039         	goto	u1861
  3185  007258  EF30  F039         	goto	u1860
  3186  00725C                     u1861:
  3187  00725C  EF33  F039         	goto	l238
  3188  007260                     u1860:
  3189  007260  500B               	movf	lcdPosition@coluna^0,w,c
  3190  007262  0F80               	addlw	128
  3191  007264  6E0A               	movwf	lcdPosition@comando^0,c
  3192  007266                     l238:
  3193                           
  3194                           ;lcdPosition.c: 17:     if(linha == 1 && comando != 0x01) comando = 0xC0 + coluna;
  3195  007266  0409               	decf	lcdPosition@linha^0,w,c
  3196  007268  A4D8               	btfss	status,2,c
  3197  00726A  EF39  F039         	goto	u1871
  3198  00726E  EF3B  F039         	goto	u1870
  3199  007272                     u1871:
  3200  007272  EF46  F039         	goto	l239
  3201  007276                     u1870:
  3202  007276  040A               	decf	lcdPosition@comando^0,w,c
  3203  007278  B4D8               	btfsc	status,2,c
  3204  00727A  EF41  F039         	goto	u1881
  3205  00727E  EF43  F039         	goto	u1880
  3206  007282                     u1881:
  3207  007282  EF46  F039         	goto	l239
  3208  007286                     u1880:
  3209  007286  500B               	movf	lcdPosition@coluna^0,w,c
  3210  007288  0FC0               	addlw	192
  3211  00728A  6E0A               	movwf	lcdPosition@comando^0,c
  3212  00728C                     l239:
  3213                           
  3214                           ;lcdPosition.c: 18:     if(coluna > 15){
  3215  00728C  0E0F               	movlw	15
  3216  00728E  640B               	cpfsgt	lcdPosition@coluna^0,c
  3217  007290  EF4C  F039         	goto	u1891
  3218  007294  EF4E  F039         	goto	u1890
  3219  007298                     u1891:
  3220  007298  EF4E  F039         	goto	l2356
  3221  00729C                     u1890:
  3222  00729C                     l2356:
  3223                           
  3224                           ;lcdPosition.c: 25:     lcdCommand(comando);
  3225  00729C  500A               	movf	lcdPosition@comando^0,w,c
  3226  00729E  ECC8  F038         	call	_lcdCommand
  3227  0072A2  0012               	return		;funcret
  3228  0072A4                     __end_of_lcdPosition:
  3229                           	callstack 0
  3230                           
  3231 ;; *************** function _lcdInit *****************
  3232 ;; Defined at:
  3233 ;;		line 95 in file "lcd.c"
  3234 ;; Parameters:    Size  Location     Type
  3235 ;;		None
  3236 ;; Auto vars:     Size  Location     Type
  3237 ;;		None
  3238 ;; Return value:  Size  Location     Type
  3239 ;;                  1    wreg      void 
  3240 ;; Registers used:
  3241 ;;		wreg, status,2, status,0, cstack
  3242 ;; Tracked objects:
  3243 ;;		On entry : 0/0
  3244 ;;		On exit  : 0/0
  3245 ;;		Unchanged: 0/0
  3246 ;; Data sizes:     COMRAM   BANK0   BANK1   BANK2   BANK3   BANK4   BANK5
  3247 ;;      Params:         0       0       0       0       0       0       0
  3248 ;;      Locals:         0       0       0       0       0       0       0
  3249 ;;      Temps:          0       0       0       0       0       0       0
  3250 ;;      Totals:         0       0       0       0       0       0       0
  3251 ;;Total ram usage:        0 bytes
  3252 ;; Hardware stack levels used: 1
  3253 ;; Hardware stack levels required when called: 3
  3254 ;; This function calls:
  3255 ;;		_Delay2ms
  3256 ;;		_lcdCommand
  3257 ;;		_pinMode
  3258 ;; This function is called by:
  3259 ;;		_exceptDesarmado
  3260 ;;		_exceptArmado
  3261 ;;		_mensagemInicial
  3262 ;;		_mensagemDesarmada
  3263 ;;		_mensagemArmada
  3264 ;;		_mensagemInvadida
  3265 ;; This function uses a non-reentrant model
  3266 ;;
  3267                           
  3268                           	psect	text19
  3269  007020                     __ptext19:
  3270                           	callstack 0
  3271  007020                     _lcdInit:
  3272                           	callstack 26
  3273  007020                     
  3274                           ;lcd.c: 97:     pinMode(PIN_E2, 0);
  3275  007020  0E00               	movlw	0
  3276  007022  6E02               	movwf	(pinMode@pin+1)^0,c
  3277  007024  0E22               	movlw	34
  3278  007026  6E01               	movwf	pinMode@pin^0,c
  3279  007028  0E00               	movlw	0
  3280  00702A  6E04               	movwf	(pinMode@type+1)^0,c
  3281  00702C  0E00               	movlw	0
  3282  00702E  6E03               	movwf	pinMode@type^0,c
  3283  007030  ECD9  F03E         	call	_pinMode	;wreg free
  3284                           
  3285                           ;lcd.c: 98:     pinMode(PIN_E1, 0);
  3286  007034  0E00               	movlw	0
  3287  007036  6E02               	movwf	(pinMode@pin+1)^0,c
  3288  007038  0E21               	movlw	33
  3289  00703A  6E01               	movwf	pinMode@pin^0,c
  3290  00703C  0E00               	movlw	0
  3291  00703E  6E04               	movwf	(pinMode@type+1)^0,c
  3292  007040  0E00               	movlw	0
  3293  007042  6E03               	movwf	pinMode@type^0,c
  3294  007044  ECD9  F03E         	call	_pinMode	;wreg free
  3295  007048                     
  3296                           ;lcd.c: 99:  TRISD = 0x00;
  3297  007048  0E00               	movlw	0
  3298  00704A  6E95               	movwf	149,c	;volatile
  3299  00704C                     
  3300                           ;lcd.c: 102:  Delay2ms(); Delay2ms(); Delay2ms(); Delay2ms(); Delay2ms();
  3301  00704C  EC8D  F035         	call	_Delay2ms	;wreg free
  3302  007050  EC8D  F035         	call	_Delay2ms	;wreg free
  3303  007054  EC8D  F035         	call	_Delay2ms	;wreg free
  3304  007058  EC8D  F035         	call	_Delay2ms	;wreg free
  3305  00705C  EC8D  F035         	call	_Delay2ms	;wreg free
  3306  007060                     
  3307                           ;lcd.c: 104:     lcdCommand(0x38);
  3308  007060  0E38               	movlw	56
  3309  007062  ECC8  F038         	call	_lcdCommand
  3310  007066                     
  3311                           ;lcd.c: 105:     Delay2ms(); Delay2ms();
  3312  007066  EC8D  F035         	call	_Delay2ms	;wreg free
  3313  00706A  EC8D  F035         	call	_Delay2ms	;wreg free
  3314  00706E                     
  3315                           ;lcd.c: 106:     lcdCommand(0x38);
  3316  00706E  0E38               	movlw	56
  3317  007070  ECC8  F038         	call	_lcdCommand
  3318  007074                     
  3319                           ;lcd.c: 107:     Delay2ms();
  3320  007074  EC8D  F035         	call	_Delay2ms	;wreg free
  3321  007078                     
  3322                           ;lcd.c: 108:     lcdCommand(0x38);
  3323  007078  0E38               	movlw	56
  3324  00707A  ECC8  F038         	call	_lcdCommand
  3325  00707E                     
  3326                           ;lcd.c: 110:     lcdCommand(0x38);
  3327  00707E  0E38               	movlw	56
  3328  007080  ECC8  F038         	call	_lcdCommand
  3329  007084                     
  3330                           ;lcd.c: 111:     lcdCommand(0x06);
  3331  007084  0E06               	movlw	6
  3332  007086  ECC8  F038         	call	_lcdCommand
  3333  00708A                     
  3334                           ;lcd.c: 114:     lcdCommand(0x0C);
  3335  00708A  0E0C               	movlw	12
  3336  00708C  ECC8  F038         	call	_lcdCommand
  3337  007090                     
  3338                           ;lcd.c: 115:     lcdCommand(0x01);
  3339  007090  0E01               	movlw	1
  3340  007092  ECC8  F038         	call	_lcdCommand
  3341  007096  0012               	return		;funcret
  3342  007098                     __end_of_lcdInit:
  3343                           	callstack 0
  3344                           
  3345 ;; *************** function _pinMode *****************
  3346 ;; Defined at:
  3347 ;;		line 54 in file "io.c"
  3348 ;; Parameters:    Size  Location     Type
  3349 ;;  pin             2    0[COMRAM] int 
  3350 ;;  type            2    2[COMRAM] int 
  3351 ;; Auto vars:     Size  Location     Type
  3352 ;;		None
  3353 ;; Return value:  Size  Location     Type
  3354 ;;                  1    wreg      void 
  3355 ;; Registers used:
  3356 ;;		wreg, status,2, status,0
  3357 ;; Tracked objects:
  3358 ;;		On entry : 0/0
  3359 ;;		On exit  : 0/0
  3360 ;;		Unchanged: 0/0
  3361 ;; Data sizes:     COMRAM   BANK0   BANK1   BANK2   BANK3   BANK4   BANK5
  3362 ;;      Params:         4       0       0       0       0       0       0
  3363 ;;      Locals:         0       0       0       0       0       0       0
  3364 ;;      Temps:          2       0       0       0       0       0       0
  3365 ;;      Totals:         6       0       0       0       0       0       0
  3366 ;;Total ram usage:        6 bytes
  3367 ;; Hardware stack levels used: 1
  3368 ;; This function calls:
  3369 ;;		Nothing
  3370 ;; This function is called by:
  3371 ;;		_lcdInit
  3372 ;; This function uses a non-reentrant model
  3373 ;;
  3374                           
  3375                           	psect	text20
  3376  007DB2                     __ptext20:
  3377                           	callstack 0
  3378  007DB2                     _pinMode:
  3379                           	callstack 28
  3380  007DB2                     
  3381                           ;io.c: 56:     if(pin <8){
  3382  007DB2  BE02               	btfsc	(pinMode@pin+1)^0,7,c
  3383  007DB4  EFE7  F03E         	goto	u1490
  3384  007DB8  5002               	movf	(pinMode@pin+1)^0,w,c
  3385  007DBA  E107               	bnz	u1491
  3386  007DBC  0E08               	movlw	8
  3387  007DBE  5C01               	subwf	pinMode@pin^0,w,c
  3388  007DC0  B0D8               	btfsc	status,0,c
  3389  007DC2  EFE5  F03E         	goto	u1491
  3390  007DC6  EFE7  F03E         	goto	u1490
  3391  007DCA                     u1491:
  3392  007DCA  EF11  F03F         	goto	l2118
  3393  007DCE                     u1490:
  3394  007DCE                     
  3395                           ;io.c: 57:         if (type){ ((TRISA) |= (1<<(pin)));}
  3396  007DCE  5003               	movf	pinMode@type^0,w,c
  3397  007DD0  1004               	iorwf	(pinMode@type+1)^0,w,c
  3398  007DD2  B4D8               	btfsc	status,2,c
  3399  007DD4  EFEE  F03E         	goto	u1501
  3400  007DD8  EFF0  F03E         	goto	u1500
  3401  007DDC                     u1501:
  3402  007DDC  EF00  F03F         	goto	l2116
  3403  007DE0                     u1500:
  3404  007DE0  C001  F005         	movff	pinMode@pin,??_pinMode
  3405  007DE4  0E01               	movlw	1
  3406  007DE6  6E06               	movwf	(??_pinMode+1)^0,c
  3407  007DE8  2A05               	incf	??_pinMode^0,f,c
  3408  007DEA  EFF9  F03E         	goto	u1514
  3409  007DEE                     u1515:
  3410  007DEE  90D8               	bcf	status,0,c
  3411  007DF0  3606               	rlcf	(??_pinMode+1)^0,f,c
  3412  007DF2                     u1514:
  3413  007DF2  2E05               	decfsz	??_pinMode^0,f,c
  3414  007DF4  EFF7  F03E         	goto	u1515
  3415  007DF8  5006               	movf	(??_pinMode+1)^0,w,c
  3416  007DFA  1292               	iorwf	146,f,c	;volatile
  3417  007DFC  EFFF  F03F         	goto	l76
  3418  007E00                     l2116:
  3419  007E00  C001  F005         	movff	pinMode@pin,??_pinMode
  3420  007E04  0E01               	movlw	1
  3421  007E06  6E06               	movwf	(??_pinMode+1)^0,c
  3422  007E08  2A05               	incf	??_pinMode^0,f,c
  3423  007E0A  EF09  F03F         	goto	u1524
  3424  007E0E                     u1525:
  3425  007E0E  90D8               	bcf	status,0,c
  3426  007E10  3606               	rlcf	(??_pinMode+1)^0,f,c
  3427  007E12                     u1524:
  3428  007E12  2E05               	decfsz	??_pinMode^0,f,c
  3429  007E14  EF07  F03F         	goto	u1525
  3430  007E18  5006               	movf	(??_pinMode+1)^0,w,c
  3431  007E1A  0AFF               	xorlw	255
  3432  007E1C  1692               	andwf	146,f,c	;volatile
  3433  007E1E  EFFF  F03F         	goto	l76
  3434  007E22                     l2118:
  3435  007E22  BE02               	btfsc	(pinMode@pin+1)^0,7,c
  3436  007E24  EF1F  F03F         	goto	u1530
  3437  007E28  5002               	movf	(pinMode@pin+1)^0,w,c
  3438  007E2A  E107               	bnz	u1531
  3439  007E2C  0E10               	movlw	16
  3440  007E2E  5C01               	subwf	pinMode@pin^0,w,c
  3441  007E30  B0D8               	btfsc	status,0,c
  3442  007E32  EF1D  F03F         	goto	u1531
  3443  007E36  EF1F  F03F         	goto	u1530
  3444  007E3A                     u1531:
  3445  007E3A  EF4D  F03F         	goto	l2126
  3446  007E3E                     u1530:
  3447  007E3E                     
  3448                           ;io.c: 60:         if (type){ ((TRISB) |= (1<<(pin-8)));}
  3449  007E3E  5003               	movf	pinMode@type^0,w,c
  3450  007E40  1004               	iorwf	(pinMode@type+1)^0,w,c
  3451  007E42  B4D8               	btfsc	status,2,c
  3452  007E44  EF26  F03F         	goto	u1541
  3453  007E48  EF28  F03F         	goto	u1540
  3454  007E4C                     u1541:
  3455  007E4C  EF3A  F03F         	goto	l2124
  3456  007E50                     u1540:
  3457  007E50  C001  F005         	movff	pinMode@pin,??_pinMode
  3458  007E54  0EF8               	movlw	-8
  3459  007E56  2605               	addwf	??_pinMode^0,f,c
  3460  007E58  0E01               	movlw	1
  3461  007E5A  6E06               	movwf	(??_pinMode+1)^0,c
  3462  007E5C  2A05               	incf	??_pinMode^0,f,c
  3463  007E5E  EF33  F03F         	goto	u1554
  3464  007E62                     u1555:
  3465  007E62  90D8               	bcf	status,0,c
  3466  007E64  3606               	rlcf	(??_pinMode+1)^0,f,c
  3467  007E66                     u1554:
  3468  007E66  2E05               	decfsz	??_pinMode^0,f,c
  3469  007E68  EF31  F03F         	goto	u1555
  3470  007E6C  5006               	movf	(??_pinMode+1)^0,w,c
  3471  007E6E  1293               	iorwf	147,f,c	;volatile
  3472  007E70  EFFF  F03F         	goto	l76
  3473  007E74                     l2124:
  3474  007E74  C001  F005         	movff	pinMode@pin,??_pinMode
  3475  007E78  0EF8               	movlw	-8
  3476  007E7A  2605               	addwf	??_pinMode^0,f,c
  3477  007E7C  0E01               	movlw	1
  3478  007E7E  6E06               	movwf	(??_pinMode+1)^0,c
  3479  007E80  2A05               	incf	??_pinMode^0,f,c
  3480  007E82  EF45  F03F         	goto	u1564
  3481  007E86                     u1565:
  3482  007E86  90D8               	bcf	status,0,c
  3483  007E88  3606               	rlcf	(??_pinMode+1)^0,f,c
  3484  007E8A                     u1564:
  3485  007E8A  2E05               	decfsz	??_pinMode^0,f,c
  3486  007E8C  EF43  F03F         	goto	u1565
  3487  007E90  5006               	movf	(??_pinMode+1)^0,w,c
  3488  007E92  0AFF               	xorlw	255
  3489  007E94  1693               	andwf	147,f,c	;volatile
  3490  007E96  EFFF  F03F         	goto	l76
  3491  007E9A                     l2126:
  3492  007E9A  BE02               	btfsc	(pinMode@pin+1)^0,7,c
  3493  007E9C  EF5B  F03F         	goto	u1570
  3494  007EA0  5002               	movf	(pinMode@pin+1)^0,w,c
  3495  007EA2  E107               	bnz	u1571
  3496  007EA4  0E18               	movlw	24
  3497  007EA6  5C01               	subwf	pinMode@pin^0,w,c
  3498  007EA8  B0D8               	btfsc	status,0,c
  3499  007EAA  EF59  F03F         	goto	u1571
  3500  007EAE  EF5B  F03F         	goto	u1570
  3501  007EB2                     u1571:
  3502  007EB2  EF89  F03F         	goto	l2134
  3503  007EB6                     u1570:
  3504  007EB6                     
  3505                           ;io.c: 63:         if (type){ ((TRISC) |= (1<<(pin-16)));}
  3506  007EB6  5003               	movf	pinMode@type^0,w,c
  3507  007EB8  1004               	iorwf	(pinMode@type+1)^0,w,c
  3508  007EBA  B4D8               	btfsc	status,2,c
  3509  007EBC  EF62  F03F         	goto	u1581
  3510  007EC0  EF64  F03F         	goto	u1580
  3511  007EC4                     u1581:
  3512  007EC4  EF76  F03F         	goto	l2132
  3513  007EC8                     u1580:
  3514  007EC8  C001  F005         	movff	pinMode@pin,??_pinMode
  3515  007ECC  0EF0               	movlw	-16
  3516  007ECE  2605               	addwf	??_pinMode^0,f,c
  3517  007ED0  0E01               	movlw	1
  3518  007ED2  6E06               	movwf	(??_pinMode+1)^0,c
  3519  007ED4  2A05               	incf	??_pinMode^0,f,c
  3520  007ED6  EF6F  F03F         	goto	u1594
  3521  007EDA                     u1595:
  3522  007EDA  90D8               	bcf	status,0,c
  3523  007EDC  3606               	rlcf	(??_pinMode+1)^0,f,c
  3524  007EDE                     u1594:
  3525  007EDE  2E05               	decfsz	??_pinMode^0,f,c
  3526  007EE0  EF6D  F03F         	goto	u1595
  3527  007EE4  5006               	movf	(??_pinMode+1)^0,w,c
  3528  007EE6  1294               	iorwf	148,f,c	;volatile
  3529  007EE8  EFFF  F03F         	goto	l76
  3530  007EEC                     l2132:
  3531  007EEC  C001  F005         	movff	pinMode@pin,??_pinMode
  3532  007EF0  0EF0               	movlw	-16
  3533  007EF2  2605               	addwf	??_pinMode^0,f,c
  3534  007EF4  0E01               	movlw	1
  3535  007EF6  6E06               	movwf	(??_pinMode+1)^0,c
  3536  007EF8  2A05               	incf	??_pinMode^0,f,c
  3537  007EFA  EF81  F03F         	goto	u1604
  3538  007EFE                     u1605:
  3539  007EFE  90D8               	bcf	status,0,c
  3540  007F00  3606               	rlcf	(??_pinMode+1)^0,f,c
  3541  007F02                     u1604:
  3542  007F02  2E05               	decfsz	??_pinMode^0,f,c
  3543  007F04  EF7F  F03F         	goto	u1605
  3544  007F08  5006               	movf	(??_pinMode+1)^0,w,c
  3545  007F0A  0AFF               	xorlw	255
  3546  007F0C  1694               	andwf	148,f,c	;volatile
  3547  007F0E  EFFF  F03F         	goto	l76
  3548  007F12                     l2134:
  3549  007F12  BE02               	btfsc	(pinMode@pin+1)^0,7,c
  3550  007F14  EF97  F03F         	goto	u1610
  3551  007F18  5002               	movf	(pinMode@pin+1)^0,w,c
  3552  007F1A  E107               	bnz	u1611
  3553  007F1C  0E20               	movlw	32
  3554  007F1E  5C01               	subwf	pinMode@pin^0,w,c
  3555  007F20  B0D8               	btfsc	status,0,c
  3556  007F22  EF95  F03F         	goto	u1611
  3557  007F26  EF97  F03F         	goto	u1610
  3558  007F2A                     u1611:
  3559  007F2A  EFC5  F03F         	goto	l2142
  3560  007F2E                     u1610:
  3561  007F2E                     
  3562                           ;io.c: 66:         if (type){ ((TRISD) |= (1<<(pin-24)));}
  3563  007F2E  5003               	movf	pinMode@type^0,w,c
  3564  007F30  1004               	iorwf	(pinMode@type+1)^0,w,c
  3565  007F32  B4D8               	btfsc	status,2,c
  3566  007F34  EF9E  F03F         	goto	u1621
  3567  007F38  EFA0  F03F         	goto	u1620
  3568  007F3C                     u1621:
  3569  007F3C  EFB2  F03F         	goto	l2140
  3570  007F40                     u1620:
  3571  007F40  C001  F005         	movff	pinMode@pin,??_pinMode
  3572  007F44  0EE8               	movlw	-24
  3573  007F46  2605               	addwf	??_pinMode^0,f,c
  3574  007F48  0E01               	movlw	1
  3575  007F4A  6E06               	movwf	(??_pinMode+1)^0,c
  3576  007F4C  2A05               	incf	??_pinMode^0,f,c
  3577  007F4E  EFAB  F03F         	goto	u1634
  3578  007F52                     u1635:
  3579  007F52  90D8               	bcf	status,0,c
  3580  007F54  3606               	rlcf	(??_pinMode+1)^0,f,c
  3581  007F56                     u1634:
  3582  007F56  2E05               	decfsz	??_pinMode^0,f,c
  3583  007F58  EFA9  F03F         	goto	u1635
  3584  007F5C  5006               	movf	(??_pinMode+1)^0,w,c
  3585  007F5E  1295               	iorwf	149,f,c	;volatile
  3586  007F60  EFFF  F03F         	goto	l76
  3587  007F64                     l2140:
  3588  007F64  C001  F005         	movff	pinMode@pin,??_pinMode
  3589  007F68  0EE8               	movlw	-24
  3590  007F6A  2605               	addwf	??_pinMode^0,f,c
  3591  007F6C  0E01               	movlw	1
  3592  007F6E  6E06               	movwf	(??_pinMode+1)^0,c
  3593  007F70  2A05               	incf	??_pinMode^0,f,c
  3594  007F72  EFBD  F03F         	goto	u1644
  3595  007F76                     u1645:
  3596  007F76  90D8               	bcf	status,0,c
  3597  007F78  3606               	rlcf	(??_pinMode+1)^0,f,c
  3598  007F7A                     u1644:
  3599  007F7A  2E05               	decfsz	??_pinMode^0,f,c
  3600  007F7C  EFBB  F03F         	goto	u1645
  3601  007F80  5006               	movf	(??_pinMode+1)^0,w,c
  3602  007F82  0AFF               	xorlw	255
  3603  007F84  1695               	andwf	149,f,c	;volatile
  3604  007F86  EFFF  F03F         	goto	l76
  3605  007F8A                     l2142:
  3606  007F8A  BE02               	btfsc	(pinMode@pin+1)^0,7,c
  3607  007F8C  EFD3  F03F         	goto	u1650
  3608  007F90  5002               	movf	(pinMode@pin+1)^0,w,c
  3609  007F92  E107               	bnz	u1651
  3610  007F94  0E28               	movlw	40
  3611  007F96  5C01               	subwf	pinMode@pin^0,w,c
  3612  007F98  B0D8               	btfsc	status,0,c
  3613  007F9A  EFD1  F03F         	goto	u1651
  3614  007F9E  EFD3  F03F         	goto	u1650
  3615  007FA2                     u1651:
  3616  007FA2  EFFF  F03F         	goto	l76
  3617  007FA6                     u1650:
  3618  007FA6                     
  3619                           ;io.c: 69:         if (type){ ((TRISE) |= (1<<(pin-32)));}
  3620  007FA6  5003               	movf	pinMode@type^0,w,c
  3621  007FA8  1004               	iorwf	(pinMode@type+1)^0,w,c
  3622  007FAA  B4D8               	btfsc	status,2,c
  3623  007FAC  EFDA  F03F         	goto	u1661
  3624  007FB0  EFDC  F03F         	goto	u1660
  3625  007FB4                     u1661:
  3626  007FB4  EFEE  F03F         	goto	l2148
  3627  007FB8                     u1660:
  3628  007FB8  C001  F005         	movff	pinMode@pin,??_pinMode
  3629  007FBC  0EE0               	movlw	-32
  3630  007FBE  2605               	addwf	??_pinMode^0,f,c
  3631  007FC0  0E01               	movlw	1
  3632  007FC2  6E06               	movwf	(??_pinMode+1)^0,c
  3633  007FC4  2A05               	incf	??_pinMode^0,f,c
  3634  007FC6  EFE7  F03F         	goto	u1674
  3635  007FCA                     u1675:
  3636  007FCA  90D8               	bcf	status,0,c
  3637  007FCC  3606               	rlcf	(??_pinMode+1)^0,f,c
  3638  007FCE                     u1674:
  3639  007FCE  2E05               	decfsz	??_pinMode^0,f,c
  3640  007FD0  EFE5  F03F         	goto	u1675
  3641  007FD4  5006               	movf	(??_pinMode+1)^0,w,c
  3642  007FD6  1296               	iorwf	150,f,c	;volatile
  3643  007FD8  EFFF  F03F         	goto	l76
  3644  007FDC                     l2148:
  3645  007FDC  C001  F005         	movff	pinMode@pin,??_pinMode
  3646  007FE0  0EE0               	movlw	-32
  3647  007FE2  2605               	addwf	??_pinMode^0,f,c
  3648  007FE4  0E01               	movlw	1
  3649  007FE6  6E06               	movwf	(??_pinMode+1)^0,c
  3650  007FE8  2A05               	incf	??_pinMode^0,f,c
  3651  007FEA  EFF9  F03F         	goto	u1684
  3652  007FEE                     u1685:
  3653  007FEE  90D8               	bcf	status,0,c
  3654  007FF0  3606               	rlcf	(??_pinMode+1)^0,f,c
  3655  007FF2                     u1684:
  3656  007FF2  2E05               	decfsz	??_pinMode^0,f,c
  3657  007FF4  EFF7  F03F         	goto	u1685
  3658  007FF8  5006               	movf	(??_pinMode+1)^0,w,c
  3659  007FFA  0AFF               	xorlw	255
  3660  007FFC  1696               	andwf	150,f,c	;volatile
  3661  007FFE                     l76:
  3662  007FFE  0012               	return		;funcret
  3663  008000                     __end_of_pinMode:
  3664                           	callstack 0
  3665                           
  3666 ;; *************** function _lcdCommand *****************
  3667 ;; Defined at:
  3668 ;;		line 48 in file "lcd.c"
  3669 ;; Parameters:    Size  Location     Type
  3670 ;;  cmd             1    wreg     unsigned char 
  3671 ;; Auto vars:     Size  Location     Type
  3672 ;;  cmd             1    7[COMRAM] unsigned char 
  3673 ;;  old_D           1    6[COMRAM] unsigned char 
  3674 ;; Return value:  Size  Location     Type
  3675 ;;                  1    wreg      void 
  3676 ;; Registers used:
  3677 ;;		wreg, status,2, status,0, cstack
  3678 ;; Tracked objects:
  3679 ;;		On entry : 0/0
  3680 ;;		On exit  : 0/0
  3681 ;;		Unchanged: 0/0
  3682 ;; Data sizes:     COMRAM   BANK0   BANK1   BANK2   BANK3   BANK4   BANK5
  3683 ;;      Params:         0       0       0       0       0       0       0
  3684 ;;      Locals:         2       0       0       0       0       0       0
  3685 ;;      Temps:          0       0       0       0       0       0       0
  3686 ;;      Totals:         2       0       0       0       0       0       0
  3687 ;;Total ram usage:        2 bytes
  3688 ;; Hardware stack levels used: 1
  3689 ;; Hardware stack levels required when called: 2
  3690 ;; This function calls:
  3691 ;;		_Delay2ms
  3692 ;;		_Delay40us
  3693 ;;		_digitalWrite
  3694 ;; This function is called by:
  3695 ;;		_lcdInit
  3696 ;;		_main
  3697 ;;		_lcdPosition
  3698 ;;		_armada
  3699 ;;		_centralDesarmada
  3700 ;;		_exceptDesarmado
  3701 ;;		_exceptArmado
  3702 ;;		_mensagemInicial
  3703 ;;		_mensagemDesarmada
  3704 ;;		_mensagemArmada
  3705 ;;		_mensagemInvadida
  3706 ;; This function uses a non-reentrant model
  3707 ;;
  3708                           
  3709                           	psect	text21
  3710  007190                     __ptext21:
  3711                           	callstack 0
  3712  007190                     _lcdCommand:
  3713                           	callstack 26
  3714                           
  3715                           ;incstack = 0
  3716                           ;lcdCommand@cmd stored from wreg
  3717  007190  6E08               	movwf	lcdCommand@cmd^0,c
  3718  007192                     
  3719                           ;lcd.c: 48: void lcdCommand(unsigned char cmd);lcd.c: 49: {;lcd.c: 50:     unsigned char
      +                           old_D;;lcd.c: 51:     old_D = PORTD;
  3720  007192  CF83 F007          	movff	3971,lcdCommand@old_D	;volatile
  3721  007196                     
  3722                           ;lcd.c: 54:     TRISD = 0x00;
  3723  007196  0E00               	movlw	0
  3724  007198  6E95               	movwf	149,c	;volatile
  3725  00719A                     
  3726                           ;lcd.c: 56:  digitalWrite(PIN_E2, 0);
  3727  00719A  0E00               	movlw	0
  3728  00719C  6E02               	movwf	(digitalWrite@pin+1)^0,c
  3729  00719E  0E22               	movlw	34
  3730  0071A0  6E01               	movwf	digitalWrite@pin^0,c
  3731  0071A2  0E00               	movlw	0
  3732  0071A4  6E04               	movwf	(digitalWrite@value+1)^0,c
  3733  0071A6  0E00               	movlw	0
  3734  0071A8  6E03               	movwf	digitalWrite@value^0,c
  3735  0071AA  ECB2  F03D         	call	_digitalWrite	;wreg free
  3736  0071AE                     
  3737                           ;lcd.c: 57:  PORTD = cmd;
  3738  0071AE  C008  FF83         	movff	lcdCommand@cmd,3971	;volatile
  3739  0071B2                     
  3740                           ;lcd.c: 59:     digitalWrite(PIN_E1, 1);
  3741  0071B2  0E00               	movlw	0
  3742  0071B4  6E02               	movwf	(digitalWrite@pin+1)^0,c
  3743  0071B6  0E21               	movlw	33
  3744  0071B8  6E01               	movwf	digitalWrite@pin^0,c
  3745  0071BA  0E00               	movlw	0
  3746  0071BC  6E04               	movwf	(digitalWrite@value+1)^0,c
  3747  0071BE  0E01               	movlw	1
  3748  0071C0  6E03               	movwf	digitalWrite@value^0,c
  3749  0071C2  ECB2  F03D         	call	_digitalWrite	;wreg free
  3750  0071C6                     
  3751                           ;lcd.c: 60:  digitalWrite(PIN_E1, 0);
  3752  0071C6  0E00               	movlw	0
  3753  0071C8  6E02               	movwf	(digitalWrite@pin+1)^0,c
  3754  0071CA  0E21               	movlw	33
  3755  0071CC  6E01               	movwf	digitalWrite@pin^0,c
  3756  0071CE  0E00               	movlw	0
  3757  0071D0  6E04               	movwf	(digitalWrite@value+1)^0,c
  3758  0071D2  0E00               	movlw	0
  3759  0071D4  6E03               	movwf	digitalWrite@value^0,c
  3760  0071D6  ECB2  F03D         	call	_digitalWrite	;wreg free
  3761  0071DA                     
  3762                           ;lcd.c: 63:     PORTD= old_D;
  3763  0071DA  C007  FF83         	movff	lcdCommand@old_D,3971	;volatile
  3764  0071DE                     
  3765                           ;lcd.c: 65:     if((cmd == 0x02)||(cmd == 0x01)){
  3766  0071DE  0E02               	movlw	2
  3767  0071E0  1808               	xorwf	lcdCommand@cmd^0,w,c
  3768  0071E2  B4D8               	btfsc	status,2,c
  3769  0071E4  EFF6  F038         	goto	u1691
  3770  0071E8  EFF8  F038         	goto	u1690
  3771  0071EC                     u1691:
  3772  0071EC  EF00  F039         	goto	l2168
  3773  0071F0                     u1690:
  3774  0071F0  0408               	decf	lcdCommand@cmd^0,w,c
  3775  0071F2  A4D8               	btfss	status,2,c
  3776  0071F4  EFFE  F038         	goto	u1701
  3777  0071F8  EF00  F039         	goto	u1700
  3778  0071FC                     u1701:
  3779  0071FC  EF04  F039         	goto	l2170
  3780  007200                     u1700:
  3781  007200                     l2168:
  3782                           
  3783                           ;lcd.c: 66:        Delay2ms();
  3784  007200  EC8D  F035         	call	_Delay2ms	;wreg free
  3785                           
  3786                           ;lcd.c: 67:     }else{
  3787  007204  EF06  F039         	goto	l101
  3788  007208                     l2170:
  3789                           
  3790                           ;lcd.c: 68:     Delay40us();
  3791  007208  EC81  F035         	call	_Delay40us	;wreg free
  3792  00720C                     l101:
  3793  00720C  0012               	return		;funcret
  3794  00720E                     __end_of_lcdCommand:
  3795                           	callstack 0
  3796                           
  3797 ;; *************** function _Delay2ms *****************
  3798 ;; Defined at:
  3799 ;;		line 37 in file "lcd.c"
  3800 ;; Parameters:    Size  Location     Type
  3801 ;;		None
  3802 ;; Auto vars:     Size  Location     Type
  3803 ;;  i               1    1[COMRAM] unsigned char 
  3804 ;; Return value:  Size  Location     Type
  3805 ;;                  1    wreg      void 
  3806 ;; Registers used:
  3807 ;;		wreg, status,2, status,0, cstack
  3808 ;; Tracked objects:
  3809 ;;		On entry : 0/0
  3810 ;;		On exit  : 0/0
  3811 ;;		Unchanged: 0/0
  3812 ;; Data sizes:     COMRAM   BANK0   BANK1   BANK2   BANK3   BANK4   BANK5
  3813 ;;      Params:         0       0       0       0       0       0       0
  3814 ;;      Locals:         1       0       0       0       0       0       0
  3815 ;;      Temps:          0       0       0       0       0       0       0
  3816 ;;      Totals:         1       0       0       0       0       0       0
  3817 ;;Total ram usage:        1 bytes
  3818 ;; Hardware stack levels used: 1
  3819 ;; Hardware stack levels required when called: 1
  3820 ;; This function calls:
  3821 ;;		_Delay40us
  3822 ;; This function is called by:
  3823 ;;		_lcdCommand
  3824 ;;		_lcdInit
  3825 ;; This function uses a non-reentrant model
  3826 ;;
  3827                           
  3828                           	psect	text22
  3829  006B1A                     __ptext22:
  3830                           	callstack 0
  3831  006B1A                     _Delay2ms:
  3832                           	callstack 26
  3833  006B1A                     
  3834                           ;lcd.c: 39:  unsigned char i;;lcd.c: 40:  for(i=0; i < 50; i++)
  3835  006B1A  0E00               	movlw	0
  3836  006B1C  6E02               	movwf	Delay2ms@i^0,c
  3837  006B1E                     l2104:
  3838                           
  3839                           ;lcd.c: 41:  {;lcd.c: 42:   Delay40us();
  3840  006B1E  EC81  F035         	call	_Delay40us	;wreg free
  3841  006B22                     
  3842                           ;lcd.c: 43:  }
  3843  006B22  2A02               	incf	Delay2ms@i^0,f,c
  3844  006B24  0E31               	movlw	49
  3845  006B26  6402               	cpfsgt	Delay2ms@i^0,c
  3846  006B28  EF98  F035         	goto	u1481
  3847  006B2C  EF9A  F035         	goto	u1480
  3848  006B30                     u1481:
  3849  006B30  EF8F  F035         	goto	l2104
  3850  006B34                     u1480:
  3851  006B34  0012               	return		;funcret
  3852  006B36                     __end_of_Delay2ms:
  3853                           	callstack 0
  3854                           
  3855 ;; *************** function _lcdData *****************
  3856 ;; Defined at:
  3857 ;;		line 74 in file "lcd.c"
  3858 ;; Parameters:    Size  Location     Type
  3859 ;;  valor           1    wreg     unsigned char 
  3860 ;; Auto vars:     Size  Location     Type
  3861 ;;  valor           1    6[COMRAM] unsigned char 
  3862 ;;  old_D           1    7[COMRAM] unsigned char 
  3863 ;; Return value:  Size  Location     Type
  3864 ;;                  1    wreg      void 
  3865 ;; Registers used:
  3866 ;;		wreg, status,2, status,0, cstack
  3867 ;; Tracked objects:
  3868 ;;		On entry : 0/0
  3869 ;;		On exit  : 0/0
  3870 ;;		Unchanged: 0/0
  3871 ;; Data sizes:     COMRAM   BANK0   BANK1   BANK2   BANK3   BANK4   BANK5
  3872 ;;      Params:         0       0       0       0       0       0       0
  3873 ;;      Locals:         2       0       0       0       0       0       0
  3874 ;;      Temps:          0       0       0       0       0       0       0
  3875 ;;      Totals:         2       0       0       0       0       0       0
  3876 ;;Total ram usage:        2 bytes
  3877 ;; Hardware stack levels used: 1
  3878 ;; Hardware stack levels required when called: 1
  3879 ;; This function calls:
  3880 ;;		_Delay40us
  3881 ;;		_digitalWrite
  3882 ;; This function is called by:
  3883 ;;		_exceptDesarmado
  3884 ;;		_exceptArmado
  3885 ;;		_mensagemInicial
  3886 ;;		_mensagemDesarmada
  3887 ;;		_mensagemArmada
  3888 ;;		_mensagemInvadida
  3889 ;; This function uses a non-reentrant model
  3890 ;;
  3891                           
  3892                           	psect	text23
  3893  006CA6                     __ptext23:
  3894                           	callstack 0
  3895  006CA6                     _lcdData:
  3896                           	callstack 28
  3897                           
  3898                           ;incstack = 0
  3899                           ;lcdData@valor stored from wreg
  3900  006CA6  6E07               	movwf	lcdData@valor^0,c
  3901  006CA8                     
  3902                           ;lcd.c: 74: void lcdData(unsigned char valor);lcd.c: 75: {;lcd.c: 77:     unsigned char 
      +                          old_D;;lcd.c: 78:     old_D = PORTD;
  3903  006CA8  CF83 F008          	movff	3971,lcdData@old_D	;volatile
  3904  006CAC                     
  3905                           ;lcd.c: 80:     TRISD = 0x00;
  3906  006CAC  0E00               	movlw	0
  3907  006CAE  6E95               	movwf	149,c	;volatile
  3908  006CB0                     
  3909                           ;lcd.c: 81:  digitalWrite(PIN_E2, 1);
  3910  006CB0  0E00               	movlw	0
  3911  006CB2  6E02               	movwf	(digitalWrite@pin+1)^0,c
  3912  006CB4  0E22               	movlw	34
  3913  006CB6  6E01               	movwf	digitalWrite@pin^0,c
  3914  006CB8  0E00               	movlw	0
  3915  006CBA  6E04               	movwf	(digitalWrite@value+1)^0,c
  3916  006CBC  0E01               	movlw	1
  3917  006CBE  6E03               	movwf	digitalWrite@value^0,c
  3918  006CC0  ECB2  F03D         	call	_digitalWrite	;wreg free
  3919  006CC4                     
  3920                           ;lcd.c: 83:  PORTD = valor;
  3921  006CC4  C007  FF83         	movff	lcdData@valor,3971	;volatile
  3922  006CC8                     
  3923                           ;lcd.c: 85:     digitalWrite(PIN_E1, 1);
  3924  006CC8  0E00               	movlw	0
  3925  006CCA  6E02               	movwf	(digitalWrite@pin+1)^0,c
  3926  006CCC  0E21               	movlw	33
  3927  006CCE  6E01               	movwf	digitalWrite@pin^0,c
  3928  006CD0  0E00               	movlw	0
  3929  006CD2  6E04               	movwf	(digitalWrite@value+1)^0,c
  3930  006CD4  0E01               	movlw	1
  3931  006CD6  6E03               	movwf	digitalWrite@value^0,c
  3932  006CD8  ECB2  F03D         	call	_digitalWrite	;wreg free
  3933  006CDC                     
  3934                           ;lcd.c: 86:  digitalWrite(PIN_E1, 0);
  3935  006CDC  0E00               	movlw	0
  3936  006CDE  6E02               	movwf	(digitalWrite@pin+1)^0,c
  3937  006CE0  0E21               	movlw	33
  3938  006CE2  6E01               	movwf	digitalWrite@pin^0,c
  3939  006CE4  0E00               	movlw	0
  3940  006CE6  6E04               	movwf	(digitalWrite@value+1)^0,c
  3941  006CE8  0E00               	movlw	0
  3942  006CEA  6E03               	movwf	digitalWrite@value^0,c
  3943  006CEC  ECB2  F03D         	call	_digitalWrite	;wreg free
  3944  006CF0                     
  3945                           ;lcd.c: 88:     PORTD= old_D;
  3946  006CF0  C008  FF83         	movff	lcdData@old_D,3971	;volatile
  3947  006CF4                     
  3948                           ;lcd.c: 90:  Delay40us();
  3949  006CF4  EC81  F035         	call	_Delay40us	;wreg free
  3950  006CF8  0012               	return		;funcret
  3951  006CFA                     __end_of_lcdData:
  3952                           	callstack 0
  3953                           
  3954 ;; *************** function _digitalWrite *****************
  3955 ;; Defined at:
  3956 ;;		line 14 in file "io.c"
  3957 ;; Parameters:    Size  Location     Type
  3958 ;;  pin             2    0[COMRAM] int 
  3959 ;;  value           2    2[COMRAM] int 
  3960 ;; Auto vars:     Size  Location     Type
  3961 ;;		None
  3962 ;; Return value:  Size  Location     Type
  3963 ;;                  1    wreg      void 
  3964 ;; Registers used:
  3965 ;;		wreg, status,2, status,0
  3966 ;; Tracked objects:
  3967 ;;		On entry : 0/0
  3968 ;;		On exit  : 0/0
  3969 ;;		Unchanged: 0/0
  3970 ;; Data sizes:     COMRAM   BANK0   BANK1   BANK2   BANK3   BANK4   BANK5
  3971 ;;      Params:         4       0       0       0       0       0       0
  3972 ;;      Locals:         0       0       0       0       0       0       0
  3973 ;;      Temps:          2       0       0       0       0       0       0
  3974 ;;      Totals:         6       0       0       0       0       0       0
  3975 ;;Total ram usage:        6 bytes
  3976 ;; Hardware stack levels used: 1
  3977 ;; This function calls:
  3978 ;;		Nothing
  3979 ;; This function is called by:
  3980 ;;		_lcdCommand
  3981 ;;		_lcdData
  3982 ;; This function uses a non-reentrant model
  3983 ;;
  3984                           
  3985                           	psect	text24
  3986  007B64                     __ptext24:
  3987                           	callstack 0
  3988  007B64                     _digitalWrite:
  3989                           	callstack 27
  3990  007B64                     
  3991                           ;io.c: 16:     if(pin <8){
  3992  007B64  BE02               	btfsc	(digitalWrite@pin+1)^0,7,c
  3993  007B66  EFC0  F03D         	goto	u1280
  3994  007B6A  5002               	movf	(digitalWrite@pin+1)^0,w,c
  3995  007B6C  E107               	bnz	u1281
  3996  007B6E  0E08               	movlw	8
  3997  007B70  5C01               	subwf	digitalWrite@pin^0,w,c
  3998  007B72  B0D8               	btfsc	status,0,c
  3999  007B74  EFBE  F03D         	goto	u1281
  4000  007B78  EFC0  F03D         	goto	u1280
  4001  007B7C                     u1281:
  4002  007B7C  EFEA  F03D         	goto	l2066
  4003  007B80                     u1280:
  4004  007B80                     
  4005                           ;io.c: 17:         if (value){ ((PORTA) |= (1<<(pin)));}
  4006  007B80  5003               	movf	digitalWrite@value^0,w,c
  4007  007B82  1004               	iorwf	(digitalWrite@value+1)^0,w,c
  4008  007B84  B4D8               	btfsc	status,2,c
  4009  007B86  EFC7  F03D         	goto	u1291
  4010  007B8A  EFC9  F03D         	goto	u1290
  4011  007B8E                     u1291:
  4012  007B8E  EFD9  F03D         	goto	l2064
  4013  007B92                     u1290:
  4014  007B92  C001  F005         	movff	digitalWrite@pin,??_digitalWrite
  4015  007B96  0E01               	movlw	1
  4016  007B98  6E06               	movwf	(??_digitalWrite+1)^0,c
  4017  007B9A  2A05               	incf	??_digitalWrite^0,f,c
  4018  007B9C  EFD2  F03D         	goto	u1304
  4019  007BA0                     u1305:
  4020  007BA0  90D8               	bcf	status,0,c
  4021  007BA2  3606               	rlcf	(??_digitalWrite+1)^0,f,c
  4022  007BA4                     u1304:
  4023  007BA4  2E05               	decfsz	??_digitalWrite^0,f,c
  4024  007BA6  EFD0  F03D         	goto	u1305
  4025  007BAA  5006               	movf	(??_digitalWrite+1)^0,w,c
  4026  007BAC  1280               	iorwf	128,f,c	;volatile
  4027  007BAE  EFD8  F03E         	goto	l42
  4028  007BB2                     l2064:
  4029  007BB2  C001  F005         	movff	digitalWrite@pin,??_digitalWrite
  4030  007BB6  0E01               	movlw	1
  4031  007BB8  6E06               	movwf	(??_digitalWrite+1)^0,c
  4032  007BBA  2A05               	incf	??_digitalWrite^0,f,c
  4033  007BBC  EFE2  F03D         	goto	u1314
  4034  007BC0                     u1315:
  4035  007BC0  90D8               	bcf	status,0,c
  4036  007BC2  3606               	rlcf	(??_digitalWrite+1)^0,f,c
  4037  007BC4                     u1314:
  4038  007BC4  2E05               	decfsz	??_digitalWrite^0,f,c
  4039  007BC6  EFE0  F03D         	goto	u1315
  4040  007BCA  5006               	movf	(??_digitalWrite+1)^0,w,c
  4041  007BCC  0AFF               	xorlw	255
  4042  007BCE  1680               	andwf	128,f,c	;volatile
  4043  007BD0  EFD8  F03E         	goto	l42
  4044  007BD4                     l2066:
  4045  007BD4  BE02               	btfsc	(digitalWrite@pin+1)^0,7,c
  4046  007BD6  EFF8  F03D         	goto	u1320
  4047  007BDA  5002               	movf	(digitalWrite@pin+1)^0,w,c
  4048  007BDC  E107               	bnz	u1321
  4049  007BDE  0E10               	movlw	16
  4050  007BE0  5C01               	subwf	digitalWrite@pin^0,w,c
  4051  007BE2  B0D8               	btfsc	status,0,c
  4052  007BE4  EFF6  F03D         	goto	u1321
  4053  007BE8  EFF8  F03D         	goto	u1320
  4054  007BEC                     u1321:
  4055  007BEC  EF26  F03E         	goto	l2074
  4056  007BF0                     u1320:
  4057  007BF0                     
  4058                           ;io.c: 20:         pin -=8;
  4059  007BF0  0EF8               	movlw	248
  4060  007BF2  2601               	addwf	digitalWrite@pin^0,f,c
  4061  007BF4  0EFF               	movlw	255
  4062  007BF6  2202               	addwfc	(digitalWrite@pin+1)^0,f,c
  4063                           
  4064                           ;io.c: 21:         if (value){ ((PORTB) |= (1<<(pin)));}
  4065  007BF8  5003               	movf	digitalWrite@value^0,w,c
  4066  007BFA  1004               	iorwf	(digitalWrite@value+1)^0,w,c
  4067  007BFC  B4D8               	btfsc	status,2,c
  4068  007BFE  EF03  F03E         	goto	u1331
  4069  007C02  EF05  F03E         	goto	u1330
  4070  007C06                     u1331:
  4071  007C06  EF15  F03E         	goto	l2072
  4072  007C0A                     u1330:
  4073  007C0A  C001  F005         	movff	digitalWrite@pin,??_digitalWrite
  4074  007C0E  0E01               	movlw	1
  4075  007C10  6E06               	movwf	(??_digitalWrite+1)^0,c
  4076  007C12  2A05               	incf	??_digitalWrite^0,f,c
  4077  007C14  EF0E  F03E         	goto	u1344
  4078  007C18                     u1345:
  4079  007C18  90D8               	bcf	status,0,c
  4080  007C1A  3606               	rlcf	(??_digitalWrite+1)^0,f,c
  4081  007C1C                     u1344:
  4082  007C1C  2E05               	decfsz	??_digitalWrite^0,f,c
  4083  007C1E  EF0C  F03E         	goto	u1345
  4084  007C22  5006               	movf	(??_digitalWrite+1)^0,w,c
  4085  007C24  1281               	iorwf	129,f,c	;volatile
  4086  007C26  EFD8  F03E         	goto	l42
  4087  007C2A                     l2072:
  4088  007C2A  C001  F005         	movff	digitalWrite@pin,??_digitalWrite
  4089  007C2E  0E01               	movlw	1
  4090  007C30  6E06               	movwf	(??_digitalWrite+1)^0,c
  4091  007C32  2A05               	incf	??_digitalWrite^0,f,c
  4092  007C34  EF1E  F03E         	goto	u1354
  4093  007C38                     u1355:
  4094  007C38  90D8               	bcf	status,0,c
  4095  007C3A  3606               	rlcf	(??_digitalWrite+1)^0,f,c
  4096  007C3C                     u1354:
  4097  007C3C  2E05               	decfsz	??_digitalWrite^0,f,c
  4098  007C3E  EF1C  F03E         	goto	u1355
  4099  007C42  5006               	movf	(??_digitalWrite+1)^0,w,c
  4100  007C44  0AFF               	xorlw	255
  4101  007C46  1681               	andwf	129,f,c	;volatile
  4102  007C48  EFD8  F03E         	goto	l42
  4103  007C4C                     l2074:
  4104  007C4C  BE02               	btfsc	(digitalWrite@pin+1)^0,7,c
  4105  007C4E  EF34  F03E         	goto	u1360
  4106  007C52  5002               	movf	(digitalWrite@pin+1)^0,w,c
  4107  007C54  E107               	bnz	u1361
  4108  007C56  0E18               	movlw	24
  4109  007C58  5C01               	subwf	digitalWrite@pin^0,w,c
  4110  007C5A  B0D8               	btfsc	status,0,c
  4111  007C5C  EF32  F03E         	goto	u1361
  4112  007C60  EF34  F03E         	goto	u1360
  4113  007C64                     u1361:
  4114  007C64  EF62  F03E         	goto	l2082
  4115  007C68                     u1360:
  4116  007C68                     
  4117                           ;io.c: 24:         pin -=16;
  4118  007C68  0EF0               	movlw	240
  4119  007C6A  2601               	addwf	digitalWrite@pin^0,f,c
  4120  007C6C  0EFF               	movlw	255
  4121  007C6E  2202               	addwfc	(digitalWrite@pin+1)^0,f,c
  4122                           
  4123                           ;io.c: 25:         if (value){ ((PORTC) |= (1<<(pin)));}
  4124  007C70  5003               	movf	digitalWrite@value^0,w,c
  4125  007C72  1004               	iorwf	(digitalWrite@value+1)^0,w,c
  4126  007C74  B4D8               	btfsc	status,2,c
  4127  007C76  EF3F  F03E         	goto	u1371
  4128  007C7A  EF41  F03E         	goto	u1370
  4129  007C7E                     u1371:
  4130  007C7E  EF51  F03E         	goto	l2080
  4131  007C82                     u1370:
  4132  007C82  C001  F005         	movff	digitalWrite@pin,??_digitalWrite
  4133  007C86  0E01               	movlw	1
  4134  007C88  6E06               	movwf	(??_digitalWrite+1)^0,c
  4135  007C8A  2A05               	incf	??_digitalWrite^0,f,c
  4136  007C8C  EF4A  F03E         	goto	u1384
  4137  007C90                     u1385:
  4138  007C90  90D8               	bcf	status,0,c
  4139  007C92  3606               	rlcf	(??_digitalWrite+1)^0,f,c
  4140  007C94                     u1384:
  4141  007C94  2E05               	decfsz	??_digitalWrite^0,f,c
  4142  007C96  EF48  F03E         	goto	u1385
  4143  007C9A  5006               	movf	(??_digitalWrite+1)^0,w,c
  4144  007C9C  1282               	iorwf	130,f,c	;volatile
  4145  007C9E  EFD8  F03E         	goto	l42
  4146  007CA2                     l2080:
  4147  007CA2  C001  F005         	movff	digitalWrite@pin,??_digitalWrite
  4148  007CA6  0E01               	movlw	1
  4149  007CA8  6E06               	movwf	(??_digitalWrite+1)^0,c
  4150  007CAA  2A05               	incf	??_digitalWrite^0,f,c
  4151  007CAC  EF5A  F03E         	goto	u1394
  4152  007CB0                     u1395:
  4153  007CB0  90D8               	bcf	status,0,c
  4154  007CB2  3606               	rlcf	(??_digitalWrite+1)^0,f,c
  4155  007CB4                     u1394:
  4156  007CB4  2E05               	decfsz	??_digitalWrite^0,f,c
  4157  007CB6  EF58  F03E         	goto	u1395
  4158  007CBA  5006               	movf	(??_digitalWrite+1)^0,w,c
  4159  007CBC  0AFF               	xorlw	255
  4160  007CBE  1682               	andwf	130,f,c	;volatile
  4161  007CC0  EFD8  F03E         	goto	l42
  4162  007CC4                     l2082:
  4163  007CC4  BE02               	btfsc	(digitalWrite@pin+1)^0,7,c
  4164  007CC6  EF70  F03E         	goto	u1400
  4165  007CCA  5002               	movf	(digitalWrite@pin+1)^0,w,c
  4166  007CCC  E107               	bnz	u1401
  4167  007CCE  0E20               	movlw	32
  4168  007CD0  5C01               	subwf	digitalWrite@pin^0,w,c
  4169  007CD2  B0D8               	btfsc	status,0,c
  4170  007CD4  EF6E  F03E         	goto	u1401
  4171  007CD8  EF70  F03E         	goto	u1400
  4172  007CDC                     u1401:
  4173  007CDC  EF9E  F03E         	goto	l2090
  4174  007CE0                     u1400:
  4175  007CE0                     
  4176                           ;io.c: 28:         pin -=24;
  4177  007CE0  0EE8               	movlw	232
  4178  007CE2  2601               	addwf	digitalWrite@pin^0,f,c
  4179  007CE4  0EFF               	movlw	255
  4180  007CE6  2202               	addwfc	(digitalWrite@pin+1)^0,f,c
  4181                           
  4182                           ;io.c: 29:         if (value){ ((PORTD) |= (1<<(pin)));}
  4183  007CE8  5003               	movf	digitalWrite@value^0,w,c
  4184  007CEA  1004               	iorwf	(digitalWrite@value+1)^0,w,c
  4185  007CEC  B4D8               	btfsc	status,2,c
  4186  007CEE  EF7B  F03E         	goto	u1411
  4187  007CF2  EF7D  F03E         	goto	u1410
  4188  007CF6                     u1411:
  4189  007CF6  EF8D  F03E         	goto	l2088
  4190  007CFA                     u1410:
  4191  007CFA  C001  F005         	movff	digitalWrite@pin,??_digitalWrite
  4192  007CFE  0E01               	movlw	1
  4193  007D00  6E06               	movwf	(??_digitalWrite+1)^0,c
  4194  007D02  2A05               	incf	??_digitalWrite^0,f,c
  4195  007D04  EF86  F03E         	goto	u1424
  4196  007D08                     u1425:
  4197  007D08  90D8               	bcf	status,0,c
  4198  007D0A  3606               	rlcf	(??_digitalWrite+1)^0,f,c
  4199  007D0C                     u1424:
  4200  007D0C  2E05               	decfsz	??_digitalWrite^0,f,c
  4201  007D0E  EF84  F03E         	goto	u1425
  4202  007D12  5006               	movf	(??_digitalWrite+1)^0,w,c
  4203  007D14  1283               	iorwf	131,f,c	;volatile
  4204  007D16  EFD8  F03E         	goto	l42
  4205  007D1A                     l2088:
  4206  007D1A  C001  F005         	movff	digitalWrite@pin,??_digitalWrite
  4207  007D1E  0E01               	movlw	1
  4208  007D20  6E06               	movwf	(??_digitalWrite+1)^0,c
  4209  007D22  2A05               	incf	??_digitalWrite^0,f,c
  4210  007D24  EF96  F03E         	goto	u1434
  4211  007D28                     u1435:
  4212  007D28  90D8               	bcf	status,0,c
  4213  007D2A  3606               	rlcf	(??_digitalWrite+1)^0,f,c
  4214  007D2C                     u1434:
  4215  007D2C  2E05               	decfsz	??_digitalWrite^0,f,c
  4216  007D2E  EF94  F03E         	goto	u1435
  4217  007D32  5006               	movf	(??_digitalWrite+1)^0,w,c
  4218  007D34  0AFF               	xorlw	255
  4219  007D36  1683               	andwf	131,f,c	;volatile
  4220  007D38  EFD8  F03E         	goto	l42
  4221  007D3C                     l2090:
  4222  007D3C  BE02               	btfsc	(digitalWrite@pin+1)^0,7,c
  4223  007D3E  EFAC  F03E         	goto	u1440
  4224  007D42  5002               	movf	(digitalWrite@pin+1)^0,w,c
  4225  007D44  E107               	bnz	u1441
  4226  007D46  0E28               	movlw	40
  4227  007D48  5C01               	subwf	digitalWrite@pin^0,w,c
  4228  007D4A  B0D8               	btfsc	status,0,c
  4229  007D4C  EFAA  F03E         	goto	u1441
  4230  007D50  EFAC  F03E         	goto	u1440
  4231  007D54                     u1441:
  4232  007D54  EFD8  F03E         	goto	l42
  4233  007D58                     u1440:
  4234  007D58                     
  4235                           ;io.c: 32:         pin -=32;
  4236  007D58  0EE0               	movlw	224
  4237  007D5A  2601               	addwf	digitalWrite@pin^0,f,c
  4238  007D5C  0EFF               	movlw	255
  4239  007D5E  2202               	addwfc	(digitalWrite@pin+1)^0,f,c
  4240                           
  4241                           ;io.c: 33:         if (value){ ((PORTE) |= (1<<(pin)));}
  4242  007D60  5003               	movf	digitalWrite@value^0,w,c
  4243  007D62  1004               	iorwf	(digitalWrite@value+1)^0,w,c
  4244  007D64  B4D8               	btfsc	status,2,c
  4245  007D66  EFB7  F03E         	goto	u1451
  4246  007D6A  EFB9  F03E         	goto	u1450
  4247  007D6E                     u1451:
  4248  007D6E  EFC9  F03E         	goto	l2096
  4249  007D72                     u1450:
  4250  007D72  C001  F005         	movff	digitalWrite@pin,??_digitalWrite
  4251  007D76  0E01               	movlw	1
  4252  007D78  6E06               	movwf	(??_digitalWrite+1)^0,c
  4253  007D7A  2A05               	incf	??_digitalWrite^0,f,c
  4254  007D7C  EFC2  F03E         	goto	u1464
  4255  007D80                     u1465:
  4256  007D80  90D8               	bcf	status,0,c
  4257  007D82  3606               	rlcf	(??_digitalWrite+1)^0,f,c
  4258  007D84                     u1464:
  4259  007D84  2E05               	decfsz	??_digitalWrite^0,f,c
  4260  007D86  EFC0  F03E         	goto	u1465
  4261  007D8A  5006               	movf	(??_digitalWrite+1)^0,w,c
  4262  007D8C  1284               	iorwf	132,f,c	;volatile
  4263  007D8E  EFD8  F03E         	goto	l42
  4264  007D92                     l2096:
  4265  007D92  C001  F005         	movff	digitalWrite@pin,??_digitalWrite
  4266  007D96  0E01               	movlw	1
  4267  007D98  6E06               	movwf	(??_digitalWrite+1)^0,c
  4268  007D9A  2A05               	incf	??_digitalWrite^0,f,c
  4269  007D9C  EFD2  F03E         	goto	u1474
  4270  007DA0                     u1475:
  4271  007DA0  90D8               	bcf	status,0,c
  4272  007DA2  3606               	rlcf	(??_digitalWrite+1)^0,f,c
  4273  007DA4                     u1474:
  4274  007DA4  2E05               	decfsz	??_digitalWrite^0,f,c
  4275  007DA6  EFD0  F03E         	goto	u1475
  4276  007DAA  5006               	movf	(??_digitalWrite+1)^0,w,c
  4277  007DAC  0AFF               	xorlw	255
  4278  007DAE  1684               	andwf	132,f,c	;volatile
  4279  007DB0                     l42:
  4280  007DB0  0012               	return		;funcret
  4281  007DB2                     __end_of_digitalWrite:
  4282                           	callstack 0
  4283                           
  4284 ;; *************** function _Delay40us *****************
  4285 ;; Defined at:
  4286 ;;		line 31 in file "lcd.c"
  4287 ;; Parameters:    Size  Location     Type
  4288 ;;		None
  4289 ;; Auto vars:     Size  Location     Type
  4290 ;;  i               1    0[COMRAM] unsigned char 
  4291 ;; Return value:  Size  Location     Type
  4292 ;;                  1    wreg      void 
  4293 ;; Registers used:
  4294 ;;		wreg, status,2, status,0
  4295 ;; Tracked objects:
  4296 ;;		On entry : 0/0
  4297 ;;		On exit  : 0/0
  4298 ;;		Unchanged: 0/0
  4299 ;; Data sizes:     COMRAM   BANK0   BANK1   BANK2   BANK3   BANK4   BANK5
  4300 ;;      Params:         0       0       0       0       0       0       0
  4301 ;;      Locals:         1       0       0       0       0       0       0
  4302 ;;      Temps:          0       0       0       0       0       0       0
  4303 ;;      Totals:         1       0       0       0       0       0       0
  4304 ;;Total ram usage:        1 bytes
  4305 ;; Hardware stack levels used: 1
  4306 ;; This function calls:
  4307 ;;		Nothing
  4308 ;; This function is called by:
  4309 ;;		_Delay2ms
  4310 ;;		_lcdCommand
  4311 ;;		_lcdData
  4312 ;; This function uses a non-reentrant model
  4313 ;;
  4314                           
  4315                           	psect	text25
  4316  006B02                     __ptext25:
  4317                           	callstack 0
  4318  006B02                     _Delay40us:
  4319                           	callstack 27
  4320  006B02                     
  4321                           ;lcd.c: 33:  unsigned char i;;lcd.c: 34:  for(i=0; i < 25; i++);
  4322  006B02  0E00               	movlw	0
  4323  006B04  6E01               	movwf	Delay40us@i^0,c
  4324  006B06                     l2054:
  4325  006B06  2A01               	incf	Delay40us@i^0,f,c
  4326  006B08  0E18               	movlw	24
  4327  006B0A  6401               	cpfsgt	Delay40us@i^0,c
  4328  006B0C  EF8A  F035         	goto	u1271
  4329  006B10  EF8C  F035         	goto	u1270
  4330  006B14                     u1271:
  4331  006B14  EF83  F035         	goto	l2054
  4332  006B18                     u1270:
  4333  006B18  0012               	return		;funcret
  4334  006B1A                     __end_of_Delay40us:
  4335                           	callstack 0
  4336                           
  4337 ;; *************** function _buzzerArmada *****************
  4338 ;; Defined at:
  4339 ;;		line 7 in file "buzzer.c"
  4340 ;; Parameters:    Size  Location     Type
  4341 ;;		None
  4342 ;; Auto vars:     Size  Location     Type
  4343 ;;  i               2   16[COMRAM] int 
  4344 ;; Return value:  Size  Location     Type
  4345 ;;                  1    wreg      void 
  4346 ;; Registers used:
  4347 ;;		wreg, status,2, status,0, prodl, prodh, cstack
  4348 ;; Tracked objects:
  4349 ;;		On entry : 0/0
  4350 ;;		On exit  : 0/0
  4351 ;;		Unchanged: 0/0
  4352 ;; Data sizes:     COMRAM   BANK0   BANK1   BANK2   BANK3   BANK4   BANK5
  4353 ;;      Params:         0       0       0       0       0       0       0
  4354 ;;      Locals:         2       0       0       0       0       0       0
  4355 ;;      Temps:          0       0       0       0       0       0       0
  4356 ;;      Totals:         2       0       0       0       0       0       0
  4357 ;;Total ram usage:        2 bytes
  4358 ;; Hardware stack levels used: 1
  4359 ;; Hardware stack levels required when called: 2
  4360 ;; This function calls:
  4361 ;;		_delay
  4362 ;;		_pwmFrequency
  4363 ;;		_pwmInit
  4364 ;;		_pwmSet2
  4365 ;; This function is called by:
  4366 ;;		_armada
  4367 ;; This function uses a non-reentrant model
  4368 ;;
  4369                           
  4370                           	psect	text26
  4371  006E04                     __ptext26:
  4372                           	callstack 0
  4373  006E04                     _buzzerArmada:
  4374                           	callstack 27
  4375  006E04                     
  4376                           ;buzzer.c: 9:     int i;;buzzer.c: 10:     pwmInit();
  4377  006E04  EC77  F035         	call	_pwmInit	;wreg free
  4378  006E08                     
  4379                           ;buzzer.c: 12:     for(i = 0; i<2; i++){
  4380  006E08  0E00               	movlw	0
  4381  006E0A  6E12               	movwf	(buzzerArmada@i+1)^0,c
  4382  006E0C  0E00               	movlw	0
  4383  006E0E  6E11               	movwf	buzzerArmada@i^0,c
  4384  006E10                     l2468:
  4385                           
  4386                           ;buzzer.c: 13:         pwmFrequency(10000);
  4387  006E10  0E27               	movlw	39
  4388  006E12  6E10               	movwf	(pwmFrequency@freq+1)^0,c
  4389  006E14  0E10               	movlw	16
  4390  006E16  6E0F               	movwf	pwmFrequency@freq^0,c
  4391  006E18  ECAA  F035         	call	_pwmFrequency	;wreg free
  4392  006E1C                     
  4393                           ;buzzer.c: 14:         pwmSet2(50);
  4394  006E1C  0E32               	movlw	50
  4395  006E1E  EC31  F037         	call	_pwmSet2
  4396  006E22                     
  4397                           ;buzzer.c: 15:         delay(300);
  4398  006E22  0E01               	movlw	1
  4399  006E24  6E02               	movwf	(delay@valor+1)^0,c
  4400  006E26  0E2C               	movlw	44
  4401  006E28  6E01               	movwf	delay@valor^0,c
  4402  006E2A  ECD4  F036         	call	_delay	;wreg free
  4403                           
  4404                           ;buzzer.c: 16:         pwmSet2(0);
  4405  006E2E  0E00               	movlw	0
  4406  006E30  EC31  F037         	call	_pwmSet2
  4407  006E34                     
  4408                           ;buzzer.c: 17:         delay(300);
  4409  006E34  0E01               	movlw	1
  4410  006E36  6E02               	movwf	(delay@valor+1)^0,c
  4411  006E38  0E2C               	movlw	44
  4412  006E3A  6E01               	movwf	delay@valor^0,c
  4413  006E3C  ECD4  F036         	call	_delay	;wreg free
  4414  006E40                     
  4415                           ;buzzer.c: 18:     }
  4416  006E40  4A11               	infsnz	buzzerArmada@i^0,f,c
  4417  006E42  2A12               	incf	(buzzerArmada@i+1)^0,f,c
  4418  006E44  BE12               	btfsc	(buzzerArmada@i+1)^0,7,c
  4419  006E46  EF2E  F037         	goto	u1971
  4420  006E4A  5012               	movf	(buzzerArmada@i+1)^0,w,c
  4421  006E4C  E109               	bnz	u1970
  4422  006E4E  0E02               	movlw	2
  4423  006E50  5C11               	subwf	buzzerArmada@i^0,w,c
  4424  006E52  A0D8               	btfss	status,0,c
  4425  006E54  EF2E  F037         	goto	u1971
  4426  006E58  EF30  F037         	goto	u1970
  4427  006E5C                     u1971:
  4428  006E5C  EF08  F037         	goto	l2468
  4429  006E60                     u1970:
  4430  006E60  0012               	return		;funcret
  4431  006E62                     __end_of_buzzerArmada:
  4432                           	callstack 0
  4433                           
  4434 ;; *************** function _pwmSet2 *****************
  4435 ;; Defined at:
  4436 ;;		line 40 in file "pwm.c"
  4437 ;; Parameters:    Size  Location     Type
  4438 ;;  porcento        1    wreg     unsigned char 
  4439 ;; Auto vars:     Size  Location     Type
  4440 ;;  porcento        1    9[COMRAM] unsigned char 
  4441 ;;  val             2   10[COMRAM] unsigned int 
  4442 ;; Return value:  Size  Location     Type
  4443 ;;                  1    wreg      void 
  4444 ;; Registers used:
  4445 ;;		wreg, status,2, status,0, prodl, prodh, cstack
  4446 ;; Tracked objects:
  4447 ;;		On entry : 0/0
  4448 ;;		On exit  : 0/0
  4449 ;;		Unchanged: 0/0
  4450 ;; Data sizes:     COMRAM   BANK0   BANK1   BANK2   BANK3   BANK4   BANK5
  4451 ;;      Params:         0       0       0       0       0       0       0
  4452 ;;      Locals:         3       0       0       0       0       0       0
  4453 ;;      Temps:          2       0       0       0       0       0       0
  4454 ;;      Totals:         5       0       0       0       0       0       0
  4455 ;;Total ram usage:        5 bytes
  4456 ;; Hardware stack levels used: 1
  4457 ;; Hardware stack levels required when called: 1
  4458 ;; This function calls:
  4459 ;;		___lwdiv
  4460 ;;		___wmul
  4461 ;; This function is called by:
  4462 ;;		_buzzerArmada
  4463 ;;		_buzzerDesarmada
  4464 ;;		_buzzerDisparada
  4465 ;; This function uses a non-reentrant model
  4466 ;;
  4467                           
  4468                           	psect	text27
  4469  006E62                     __ptext27:
  4470                           	callstack 0
  4471  006E62                     _pwmSet2:
  4472                           	callstack 27
  4473                           
  4474                           ;incstack = 0
  4475                           ;pwmSet2@porcento stored from wreg
  4476  006E62  6E0A               	movwf	pwmSet2@porcento^0,c
  4477  006E64                     
  4478                           ;pwm.c: 40: void pwmSet2(unsigned char porcento);pwm.c: 41: {;pwm.c: 42:  unsigned int v
      +                          al = ((unsigned int)porcento) *((*(volatile __near unsigned char*)0xFCB)+1);
  4479  006E64  0E01               	movlw	1
  4480  006E66  24CB               	addwf	203,w,c	;volatile
  4481  006E68  6E01               	movwf	___wmul@multiplier^0,c
  4482  006E6A  6A02               	clrf	(___wmul@multiplier+1)^0,c
  4483  006E6C  0E00               	movlw	0
  4484  006E6E  2202               	addwfc	(___wmul@multiplier+1)^0,f,c
  4485  006E70  C00A  F003         	movff	pwmSet2@porcento,___wmul@multiplicand
  4486  006E74  6A04               	clrf	(___wmul@multiplicand+1)^0,c
  4487  006E76  ECBD  F035         	call	___wmul	;wreg free
  4488  006E7A  C001  F00B         	movff	?___wmul,pwmSet2@val
  4489  006E7E  C002  F00C         	movff	?___wmul+1,pwmSet2@val+1
  4490  006E82                     
  4491                           ;pwm.c: 43:  val /= 25;
  4492  006E82  C00B  F001         	movff	pwmSet2@val,___lwdiv@dividend
  4493  006E86  C00C  F002         	movff	pwmSet2@val+1,___lwdiv@dividend+1
  4494  006E8A  0E00               	movlw	0
  4495  006E8C  6E04               	movwf	(___lwdiv@divisor+1)^0,c
  4496  006E8E  0E19               	movlw	25
  4497  006E90  6E03               	movwf	___lwdiv@divisor^0,c
  4498  006E92  ECD6  F037         	call	___lwdiv	;wreg free
  4499  006E96  C001  F00B         	movff	?___lwdiv,pwmSet2@val
  4500  006E9A  C002  F00C         	movff	?___lwdiv+1,pwmSet2@val+1
  4501  006E9E                     
  4502                           ;pwm.c: 45:  val &= 0x03ff;
  4503  006E9E  0EFF               	movlw	255
  4504  006EA0  160B               	andwf	pwmSet2@val^0,f,c
  4505  006EA2  0E03               	movlw	3
  4506  006EA4  160C               	andwf	(pwmSet2@val+1)^0,f,c
  4507  006EA6                     
  4508                           ;pwm.c: 47:  (*(volatile __near unsigned char*)0xFBB) = val >> 2;
  4509  006EA6  C00B  F008         	movff	pwmSet2@val,??_pwmSet2
  4510  006EAA  C00C  F009         	movff	pwmSet2@val+1,??_pwmSet2+1
  4511  006EAE  90D8               	bcf	status,0,c
  4512  006EB0  3209               	rrcf	(??_pwmSet2+1)^0,f,c
  4513  006EB2  3208               	rrcf	??_pwmSet2^0,f,c
  4514  006EB4  90D8               	bcf	status,0,c
  4515  006EB6  3209               	rrcf	(??_pwmSet2+1)^0,f,c
  4516  006EB8  3208               	rrcf	??_pwmSet2^0,f,c
  4517  006EBA  5008               	movf	??_pwmSet2^0,w,c
  4518  006EBC  6EBB               	movwf	187,c	;volatile
  4519  006EBE                     
  4520                           ;pwm.c: 49:  (*(volatile __near unsigned char*)0xFBA) |= (val & 0x0003) << 4;
  4521  006EBE  C00B  F008         	movff	pwmSet2@val,??_pwmSet2
  4522  006EC2  0E03               	movlw	3
  4523  006EC4  1608               	andwf	??_pwmSet2^0,f,c
  4524  006EC6  3808               	swapf	??_pwmSet2^0,w,c
  4525  006EC8  0BF0               	andlw	240
  4526  006ECA  12BA               	iorwf	186,f,c	;volatile
  4527  006ECC  0012               	return		;funcret
  4528  006ECE                     __end_of_pwmSet2:
  4529                           	callstack 0
  4530                           
  4531 ;; *************** function ___wmul *****************
  4532 ;; Defined at:
  4533 ;;		line 15 in file "C:\Program Files\Microchip\xc8\v2.32\pic\sources\c99\common\Umul16.c"
  4534 ;; Parameters:    Size  Location     Type
  4535 ;;  multiplier      2    0[COMRAM] unsigned int 
  4536 ;;  multiplicand    2    2[COMRAM] unsigned int 
  4537 ;; Auto vars:     Size  Location     Type
  4538 ;;  product         2    4[COMRAM] unsigned int 
  4539 ;; Return value:  Size  Location     Type
  4540 ;;                  2    0[COMRAM] unsigned int 
  4541 ;; Registers used:
  4542 ;;		wreg, status,2, status,0, prodl, prodh
  4543 ;; Tracked objects:
  4544 ;;		On entry : 0/0
  4545 ;;		On exit  : 0/0
  4546 ;;		Unchanged: 0/0
  4547 ;; Data sizes:     COMRAM   BANK0   BANK1   BANK2   BANK3   BANK4   BANK5
  4548 ;;      Params:         4       0       0       0       0       0       0
  4549 ;;      Locals:         2       0       0       0       0       0       0
  4550 ;;      Temps:          0       0       0       0       0       0       0
  4551 ;;      Totals:         6       0       0       0       0       0       0
  4552 ;;Total ram usage:        6 bytes
  4553 ;; Hardware stack levels used: 1
  4554 ;; This function calls:
  4555 ;;		Nothing
  4556 ;; This function is called by:
  4557 ;;		_pwmSet1
  4558 ;;		_pwmSet2
  4559 ;; This function uses a non-reentrant model
  4560 ;;
  4561                           
  4562                           	psect	text28
  4563  006B7A                     __ptext28:
  4564                           	callstack 0
  4565  006B7A                     ___wmul:
  4566                           	callstack 29
  4567  006B7A  5001               	movf	___wmul@multiplier^0,w,c
  4568  006B7C  0203               	mulwf	___wmul@multiplicand^0,c
  4569  006B7E  CFF3 F005          	movff	prodl,___wmul@product
  4570  006B82  CFF4 F006          	movff	prodh,___wmul@product+1
  4571  006B86  5001               	movf	___wmul@multiplier^0,w,c
  4572  006B88  0204               	mulwf	(___wmul@multiplicand+1)^0,c
  4573  006B8A  50F3               	movf	243,w,c
  4574  006B8C  2606               	addwf	(___wmul@product+1)^0,f,c
  4575  006B8E  5002               	movf	(___wmul@multiplier+1)^0,w,c
  4576  006B90  0203               	mulwf	___wmul@multiplicand^0,c
  4577  006B92  50F3               	movf	243,w,c
  4578  006B94  2606               	addwf	(___wmul@product+1)^0,f,c
  4579  006B96  C005  F001         	movff	___wmul@product,?___wmul
  4580  006B9A  C006  F002         	movff	___wmul@product+1,?___wmul+1
  4581  006B9E  0012               	return		;funcret
  4582  006BA0                     __end_of___wmul:
  4583                           	callstack 0
  4584                           
  4585 ;; *************** function ___lwdiv *****************
  4586 ;; Defined at:
  4587 ;;		line 7 in file "C:\Program Files\Microchip\xc8\v2.32\pic\sources\c99\common\lwdiv.c"
  4588 ;; Parameters:    Size  Location     Type
  4589 ;;  dividend        2    0[COMRAM] unsigned int 
  4590 ;;  divisor         2    2[COMRAM] unsigned int 
  4591 ;; Auto vars:     Size  Location     Type
  4592 ;;  quotient        2    4[COMRAM] unsigned int 
  4593 ;;  counter         1    6[COMRAM] unsigned char 
  4594 ;; Return value:  Size  Location     Type
  4595 ;;                  2    0[COMRAM] unsigned int 
  4596 ;; Registers used:
  4597 ;;		wreg, status,2, status,0
  4598 ;; Tracked objects:
  4599 ;;		On entry : 0/0
  4600 ;;		On exit  : 0/0
  4601 ;;		Unchanged: 0/0
  4602 ;; Data sizes:     COMRAM   BANK0   BANK1   BANK2   BANK3   BANK4   BANK5
  4603 ;;      Params:         4       0       0       0       0       0       0
  4604 ;;      Locals:         3       0       0       0       0       0       0
  4605 ;;      Temps:          0       0       0       0       0       0       0
  4606 ;;      Totals:         7       0       0       0       0       0       0
  4607 ;;Total ram usage:        7 bytes
  4608 ;; Hardware stack levels used: 1
  4609 ;; This function calls:
  4610 ;;		Nothing
  4611 ;; This function is called by:
  4612 ;;		_pwmSet1
  4613 ;;		_pwmSet2
  4614 ;; This function uses a non-reentrant model
  4615 ;;
  4616                           
  4617                           	psect	text29
  4618  006FAC                     __ptext29:
  4619                           	callstack 0
  4620  006FAC                     ___lwdiv:
  4621                           	callstack 29
  4622  006FAC  0E00               	movlw	0
  4623  006FAE  6E06               	movwf	(___lwdiv@quotient+1)^0,c
  4624  006FB0  0E00               	movlw	0
  4625  006FB2  6E05               	movwf	___lwdiv@quotient^0,c
  4626  006FB4  5003               	movf	___lwdiv@divisor^0,w,c
  4627  006FB6  1004               	iorwf	(___lwdiv@divisor+1)^0,w,c
  4628  006FB8  B4D8               	btfsc	status,2,c
  4629  006FBA  EFE1  F037         	goto	u1771
  4630  006FBE  EFE3  F037         	goto	u1770
  4631  006FC2                     u1771:
  4632  006FC2  EF0B  F038         	goto	l904
  4633  006FC6                     u1770:
  4634  006FC6  0E01               	movlw	1
  4635  006FC8  6E07               	movwf	___lwdiv@counter^0,c
  4636  006FCA  EFEB  F037         	goto	l2230
  4637  006FCE                     l2228:
  4638  006FCE  90D8               	bcf	status,0,c
  4639  006FD0  3603               	rlcf	___lwdiv@divisor^0,f,c
  4640  006FD2  3604               	rlcf	(___lwdiv@divisor+1)^0,f,c
  4641  006FD4  2A07               	incf	___lwdiv@counter^0,f,c
  4642  006FD6                     l2230:
  4643  006FD6  AE04               	btfss	(___lwdiv@divisor+1)^0,7,c
  4644  006FD8  EFF0  F037         	goto	u1781
  4645  006FDC  EFF2  F037         	goto	u1780
  4646  006FE0                     u1781:
  4647  006FE0  EFE7  F037         	goto	l2228
  4648  006FE4                     u1780:
  4649  006FE4                     l2232:
  4650  006FE4  90D8               	bcf	status,0,c
  4651  006FE6  3605               	rlcf	___lwdiv@quotient^0,f,c
  4652  006FE8  3606               	rlcf	(___lwdiv@quotient+1)^0,f,c
  4653  006FEA  5003               	movf	___lwdiv@divisor^0,w,c
  4654  006FEC  5C01               	subwf	___lwdiv@dividend^0,w,c
  4655  006FEE  5004               	movf	(___lwdiv@divisor+1)^0,w,c
  4656  006FF0  5802               	subwfb	(___lwdiv@dividend+1)^0,w,c
  4657  006FF2  A0D8               	btfss	status,0,c
  4658  006FF4  EFFE  F037         	goto	u1791
  4659  006FF8  EF00  F038         	goto	u1790
  4660  006FFC                     u1791:
  4661  006FFC  EF05  F038         	goto	l2240
  4662  007000                     u1790:
  4663  007000  5003               	movf	___lwdiv@divisor^0,w,c
  4664  007002  5E01               	subwf	___lwdiv@dividend^0,f,c
  4665  007004  5004               	movf	(___lwdiv@divisor+1)^0,w,c
  4666  007006  5A02               	subwfb	(___lwdiv@dividend+1)^0,f,c
  4667  007008  8005               	bsf	___lwdiv@quotient^0,0,c
  4668  00700A                     l2240:
  4669  00700A  90D8               	bcf	status,0,c
  4670  00700C  3204               	rrcf	(___lwdiv@divisor+1)^0,f,c
  4671  00700E  3203               	rrcf	___lwdiv@divisor^0,f,c
  4672  007010  2E07               	decfsz	___lwdiv@counter^0,f,c
  4673  007012  EFF2  F037         	goto	l2232
  4674  007016                     l904:
  4675  007016  C005  F001         	movff	___lwdiv@quotient,?___lwdiv
  4676  00701A  C006  F002         	movff	___lwdiv@quotient+1,?___lwdiv+1
  4677  00701E  0012               	return		;funcret
  4678  007020                     __end_of___lwdiv:
  4679                           	callstack 0
  4680                           
  4681 ;; *************** function _pwmInit *****************
  4682 ;; Defined at:
  4683 ;;		line 59 in file "pwm.c"
  4684 ;; Parameters:    Size  Location     Type
  4685 ;;		None
  4686 ;; Auto vars:     Size  Location     Type
  4687 ;;		None
  4688 ;; Return value:  Size  Location     Type
  4689 ;;                  1    wreg      void 
  4690 ;; Registers used:
  4691 ;;		wreg, status,2, status,0
  4692 ;; Tracked objects:
  4693 ;;		On entry : 0/0
  4694 ;;		On exit  : 0/0
  4695 ;;		Unchanged: 0/0
  4696 ;; Data sizes:     COMRAM   BANK0   BANK1   BANK2   BANK3   BANK4   BANK5
  4697 ;;      Params:         0       0       0       0       0       0       0
  4698 ;;      Locals:         0       0       0       0       0       0       0
  4699 ;;      Temps:          0       0       0       0       0       0       0
  4700 ;;      Totals:         0       0       0       0       0       0       0
  4701 ;;Total ram usage:        0 bytes
  4702 ;; Hardware stack levels used: 1
  4703 ;; This function calls:
  4704 ;;		Nothing
  4705 ;; This function is called by:
  4706 ;;		_cooler
  4707 ;;		_buzzerArmada
  4708 ;;		_buzzerDesarmada
  4709 ;;		_buzzerDisparada
  4710 ;; This function uses a non-reentrant model
  4711 ;;
  4712                           
  4713                           	psect	text30
  4714  006AEE                     __ptext30:
  4715                           	callstack 0
  4716  006AEE                     _pwmInit:
  4717                           	callstack 29
  4718  006AEE                     
  4719                           ;pwm.c: 61:  (((*(volatile __near unsigned char*)0xF94)) &= ~(1<<1));
  4720  006AEE  9294               	bcf	148,1,c	;volatile
  4721                           
  4722                           ;pwm.c: 62:  (((*(volatile __near unsigned char*)0xF94)) &= ~(1<<2));
  4723  006AF0  9494               	bcf	148,2,c	;volatile
  4724  006AF2                     
  4725                           ;pwm.c: 64:  (*(volatile __near unsigned char*)0xFCA) |= 0b00000011;
  4726  006AF2  0E03               	movlw	3
  4727  006AF4  12CA               	iorwf	202,f,c	;volatile
  4728  006AF6                     
  4729                           ;pwm.c: 65:  (((*(volatile __near unsigned char*)0xFCA)) |= (1<<2));
  4730  006AF6  84CA               	bsf	202,2,c	;volatile
  4731                           
  4732                           ;pwm.c: 68:  (*(volatile __near unsigned char*)0xFBD) |= 0b00001100;
  4733  006AF8  0E0C               	movlw	12
  4734  006AFA  12BD               	iorwf	189,f,c	;volatile
  4735                           
  4736                           ;pwm.c: 69:  (*(volatile __near unsigned char*)0xFBA) |= 0b00001100;
  4737  006AFC  0E0C               	movlw	12
  4738  006AFE  12BA               	iorwf	186,f,c	;volatile
  4739  006B00  0012               	return		;funcret
  4740  006B02                     __end_of_pwmInit:
  4741                           	callstack 0
  4742                           
  4743 ;; *************** function _pwmFrequency *****************
  4744 ;; Defined at:
  4745 ;;		line 52 in file "pwm.c"
  4746 ;; Parameters:    Size  Location     Type
  4747 ;;  freq            2   14[COMRAM] unsigned int 
  4748 ;; Auto vars:     Size  Location     Type
  4749 ;;		None
  4750 ;; Return value:  Size  Location     Type
  4751 ;;                  1    wreg      void 
  4752 ;; Registers used:
  4753 ;;		wreg, status,2, status,0, cstack
  4754 ;; Tracked objects:
  4755 ;;		On entry : 0/0
  4756 ;;		On exit  : 0/0
  4757 ;;		Unchanged: 0/0
  4758 ;; Data sizes:     COMRAM   BANK0   BANK1   BANK2   BANK3   BANK4   BANK5
  4759 ;;      Params:         2       0       0       0       0       0       0
  4760 ;;      Locals:         0       0       0       0       0       0       0
  4761 ;;      Temps:          0       0       0       0       0       0       0
  4762 ;;      Totals:         2       0       0       0       0       0       0
  4763 ;;Total ram usage:        2 bytes
  4764 ;; Hardware stack levels used: 1
  4765 ;; Hardware stack levels required when called: 1
  4766 ;; This function calls:
  4767 ;;		___aldiv
  4768 ;; This function is called by:
  4769 ;;		_buzzerArmada
  4770 ;;		_buzzerDesarmada
  4771 ;;		_buzzerDisparada
  4772 ;; This function uses a non-reentrant model
  4773 ;;
  4774                           
  4775                           	psect	text31
  4776  006B54                     __ptext31:
  4777                           	callstack 0
  4778  006B54                     _pwmFrequency:
  4779                           	callstack 27
  4780  006B54                     
  4781                           ;pwm.c: 52: void pwmFrequency(unsigned int freq);pwm.c: 53: {;pwm.c: 56:  (*(volatile __
      +                          near unsigned char*)0xFCB) = (125000/(freq)) - 1;
  4782  006B54  0E48               	movlw	72
  4783  006B56  6E01               	movwf	___aldiv@dividend^0,c
  4784  006B58  0EE8               	movlw	232
  4785  006B5A  6E02               	movwf	(___aldiv@dividend+1)^0,c
  4786  006B5C  0E01               	movlw	1
  4787  006B5E  6E03               	movwf	(___aldiv@dividend+2)^0,c
  4788  006B60  0E00               	movlw	0
  4789  006B62  6E04               	movwf	(___aldiv@dividend+3)^0,c
  4790  006B64  C00F  F005         	movff	pwmFrequency@freq,___aldiv@divisor
  4791  006B68  C010  F006         	movff	pwmFrequency@freq+1,___aldiv@divisor+1
  4792  006B6C  6A07               	clrf	(___aldiv@divisor+2)^0,c
  4793  006B6E  6A08               	clrf	(___aldiv@divisor+3)^0,c
  4794  006B70  ECCE  F03A         	call	___aldiv	;wreg free
  4795  006B74  0401               	decf	?___aldiv^0,w,c
  4796  006B76  6ECB               	movwf	203,c	;volatile
  4797  006B78  0012               	return		;funcret
  4798  006B7A                     __end_of_pwmFrequency:
  4799                           	callstack 0
  4800                           
  4801 ;; *************** function ___aldiv *****************
  4802 ;; Defined at:
  4803 ;;		line 7 in file "C:\Program Files\Microchip\xc8\v2.32\pic\sources\c99\common\aldiv.c"
  4804 ;; Parameters:    Size  Location     Type
  4805 ;;  dividend        4    0[COMRAM] long 
  4806 ;;  divisor         4    4[COMRAM] long 
  4807 ;; Auto vars:     Size  Location     Type
  4808 ;;  quotient        4   10[COMRAM] long 
  4809 ;;  sign            1    9[COMRAM] unsigned char 
  4810 ;;  counter         1    8[COMRAM] unsigned char 
  4811 ;; Return value:  Size  Location     Type
  4812 ;;                  4    0[COMRAM] long 
  4813 ;; Registers used:
  4814 ;;		wreg, status,2, status,0
  4815 ;; Tracked objects:
  4816 ;;		On entry : 0/0
  4817 ;;		On exit  : 0/0
  4818 ;;		Unchanged: 0/0
  4819 ;; Data sizes:     COMRAM   BANK0   BANK1   BANK2   BANK3   BANK4   BANK5
  4820 ;;      Params:         8       0       0       0       0       0       0
  4821 ;;      Locals:         6       0       0       0       0       0       0
  4822 ;;      Temps:          0       0       0       0       0       0       0
  4823 ;;      Totals:        14       0       0       0       0       0       0
  4824 ;;Total ram usage:       14 bytes
  4825 ;; Hardware stack levels used: 1
  4826 ;; This function calls:
  4827 ;;		Nothing
  4828 ;; This function is called by:
  4829 ;;		_pwmFrequency
  4830 ;; This function uses a non-reentrant model
  4831 ;;
  4832                           
  4833                           	psect	text32
  4834  00759C                     __ptext32:
  4835                           	callstack 0
  4836  00759C                     ___aldiv:
  4837                           	callstack 27
  4838  00759C  0E00               	movlw	0
  4839  00759E  6E0A               	movwf	___aldiv@sign^0,c
  4840  0075A0  BE08               	btfsc	(___aldiv@divisor+3)^0,7,c
  4841  0075A2  EFD7  F03A         	goto	u1710
  4842  0075A6  EFD5  F03A         	goto	u1711
  4843  0075AA                     u1711:
  4844  0075AA  EFE1  F03A         	goto	l2186
  4845  0075AE                     u1710:
  4846  0075AE  1E08               	comf	(___aldiv@divisor+3)^0,f,c
  4847  0075B0  1E07               	comf	(___aldiv@divisor+2)^0,f,c
  4848  0075B2  1E06               	comf	(___aldiv@divisor+1)^0,f,c
  4849  0075B4  6C05               	negf	___aldiv@divisor^0,c
  4850  0075B6  0E00               	movlw	0
  4851  0075B8  2206               	addwfc	(___aldiv@divisor+1)^0,f,c
  4852  0075BA  2207               	addwfc	(___aldiv@divisor+2)^0,f,c
  4853  0075BC  2208               	addwfc	(___aldiv@divisor+3)^0,f,c
  4854  0075BE  0E01               	movlw	1
  4855  0075C0  6E0A               	movwf	___aldiv@sign^0,c
  4856  0075C2                     l2186:
  4857  0075C2  BE04               	btfsc	(___aldiv@dividend+3)^0,7,c
  4858  0075C4  EFE8  F03A         	goto	u1720
  4859  0075C8  EFE6  F03A         	goto	u1721
  4860  0075CC                     u1721:
  4861  0075CC  EFF2  F03A         	goto	l2192
  4862  0075D0                     u1720:
  4863  0075D0  1E04               	comf	(___aldiv@dividend+3)^0,f,c
  4864  0075D2  1E03               	comf	(___aldiv@dividend+2)^0,f,c
  4865  0075D4  1E02               	comf	(___aldiv@dividend+1)^0,f,c
  4866  0075D6  6C01               	negf	___aldiv@dividend^0,c
  4867  0075D8  0E00               	movlw	0
  4868  0075DA  2202               	addwfc	(___aldiv@dividend+1)^0,f,c
  4869  0075DC  2203               	addwfc	(___aldiv@dividend+2)^0,f,c
  4870  0075DE  2204               	addwfc	(___aldiv@dividend+3)^0,f,c
  4871  0075E0  0E01               	movlw	1
  4872  0075E2  1A0A               	xorwf	___aldiv@sign^0,f,c
  4873  0075E4                     l2192:
  4874  0075E4  0E00               	movlw	0
  4875  0075E6  6E0B               	movwf	___aldiv@quotient^0,c
  4876  0075E8  0E00               	movlw	0
  4877  0075EA  6E0C               	movwf	(___aldiv@quotient+1)^0,c
  4878  0075EC  0E00               	movlw	0
  4879  0075EE  6E0D               	movwf	(___aldiv@quotient+2)^0,c
  4880  0075F0  0E00               	movlw	0
  4881  0075F2  6E0E               	movwf	(___aldiv@quotient+3)^0,c
  4882  0075F4  5005               	movf	___aldiv@divisor^0,w,c
  4883  0075F6  1006               	iorwf	(___aldiv@divisor+1)^0,w,c
  4884  0075F8  1007               	iorwf	(___aldiv@divisor+2)^0,w,c
  4885  0075FA  1008               	iorwf	(___aldiv@divisor+3)^0,w,c
  4886  0075FC  B4D8               	btfsc	status,2,c
  4887  0075FE  EF03  F03B         	goto	u1731
  4888  007602  EF05  F03B         	goto	u1730
  4889  007606                     u1731:
  4890  007606  EF3B  F03B         	goto	l2214
  4891  00760A                     u1730:
  4892  00760A  0E01               	movlw	1
  4893  00760C  6E09               	movwf	___aldiv@counter^0,c
  4894  00760E  EF0F  F03B         	goto	l2200
  4895  007612                     l2198:
  4896  007612  90D8               	bcf	status,0,c
  4897  007614  3605               	rlcf	___aldiv@divisor^0,f,c
  4898  007616  3606               	rlcf	(___aldiv@divisor+1)^0,f,c
  4899  007618  3607               	rlcf	(___aldiv@divisor+2)^0,f,c
  4900  00761A  3608               	rlcf	(___aldiv@divisor+3)^0,f,c
  4901  00761C  2A09               	incf	___aldiv@counter^0,f,c
  4902  00761E                     l2200:
  4903  00761E  AE08               	btfss	(___aldiv@divisor+3)^0,7,c
  4904  007620  EF14  F03B         	goto	u1741
  4905  007624  EF16  F03B         	goto	u1740
  4906  007628                     u1741:
  4907  007628  EF09  F03B         	goto	l2198
  4908  00762C                     u1740:
  4909  00762C                     l2202:
  4910  00762C  90D8               	bcf	status,0,c
  4911  00762E  360B               	rlcf	___aldiv@quotient^0,f,c
  4912  007630  360C               	rlcf	(___aldiv@quotient+1)^0,f,c
  4913  007632  360D               	rlcf	(___aldiv@quotient+2)^0,f,c
  4914  007634  360E               	rlcf	(___aldiv@quotient+3)^0,f,c
  4915  007636  5005               	movf	___aldiv@divisor^0,w,c
  4916  007638  5C01               	subwf	___aldiv@dividend^0,w,c
  4917  00763A  5006               	movf	(___aldiv@divisor+1)^0,w,c
  4918  00763C  5802               	subwfb	(___aldiv@dividend+1)^0,w,c
  4919  00763E  5007               	movf	(___aldiv@divisor+2)^0,w,c
  4920  007640  5803               	subwfb	(___aldiv@dividend+2)^0,w,c
  4921  007642  5008               	movf	(___aldiv@divisor+3)^0,w,c
  4922  007644  5804               	subwfb	(___aldiv@dividend+3)^0,w,c
  4923  007646  A0D8               	btfss	status,0,c
  4924  007648  EF28  F03B         	goto	u1751
  4925  00764C  EF2A  F03B         	goto	u1750
  4926  007650                     u1751:
  4927  007650  EF33  F03B         	goto	l2210
  4928  007654                     u1750:
  4929  007654  5005               	movf	___aldiv@divisor^0,w,c
  4930  007656  5E01               	subwf	___aldiv@dividend^0,f,c
  4931  007658  5006               	movf	(___aldiv@divisor+1)^0,w,c
  4932  00765A  5A02               	subwfb	(___aldiv@dividend+1)^0,f,c
  4933  00765C  5007               	movf	(___aldiv@divisor+2)^0,w,c
  4934  00765E  5A03               	subwfb	(___aldiv@dividend+2)^0,f,c
  4935  007660  5008               	movf	(___aldiv@divisor+3)^0,w,c
  4936  007662  5A04               	subwfb	(___aldiv@dividend+3)^0,f,c
  4937  007664  800B               	bsf	___aldiv@quotient^0,0,c
  4938  007666                     l2210:
  4939  007666  90D8               	bcf	status,0,c
  4940  007668  3208               	rrcf	(___aldiv@divisor+3)^0,f,c
  4941  00766A  3207               	rrcf	(___aldiv@divisor+2)^0,f,c
  4942  00766C  3206               	rrcf	(___aldiv@divisor+1)^0,f,c
  4943  00766E  3205               	rrcf	___aldiv@divisor^0,f,c
  4944  007670  2E09               	decfsz	___aldiv@counter^0,f,c
  4945  007672  EF16  F03B         	goto	l2202
  4946  007676                     l2214:
  4947  007676  500A               	movf	___aldiv@sign^0,w,c
  4948  007678  B4D8               	btfsc	status,2,c
  4949  00767A  EF41  F03B         	goto	u1761
  4950  00767E  EF43  F03B         	goto	u1760
  4951  007682                     u1761:
  4952  007682  EF4B  F03B         	goto	l2218
  4953  007686                     u1760:
  4954  007686  1E0E               	comf	(___aldiv@quotient+3)^0,f,c
  4955  007688  1E0D               	comf	(___aldiv@quotient+2)^0,f,c
  4956  00768A  1E0C               	comf	(___aldiv@quotient+1)^0,f,c
  4957  00768C  6C0B               	negf	___aldiv@quotient^0,c
  4958  00768E  0E00               	movlw	0
  4959  007690  220C               	addwfc	(___aldiv@quotient+1)^0,f,c
  4960  007692  220D               	addwfc	(___aldiv@quotient+2)^0,f,c
  4961  007694  220E               	addwfc	(___aldiv@quotient+3)^0,f,c
  4962  007696                     l2218:
  4963  007696  C00B  F001         	movff	___aldiv@quotient,?___aldiv
  4964  00769A  C00C  F002         	movff	___aldiv@quotient+1,?___aldiv+1
  4965  00769E  C00D  F003         	movff	___aldiv@quotient+2,?___aldiv+2
  4966  0076A2  C00E  F004         	movff	___aldiv@quotient+3,?___aldiv+3
  4967  0076A6  0012               	return		;funcret
  4968  0076A8                     __end_of___aldiv:
  4969                           	callstack 0
  4970                           
  4971 ;; *************** function _delay *****************
  4972 ;; Defined at:
  4973 ;;		line 5 in file "delay.c"
  4974 ;; Parameters:    Size  Location     Type
  4975 ;;  valor           2    0[COMRAM] int 
  4976 ;; Auto vars:     Size  Location     Type
  4977 ;;  i               2    3[COMRAM] int 
  4978 ;;  j               1    5[COMRAM] unsigned char 
  4979 ;; Return value:  Size  Location     Type
  4980 ;;                  1    wreg      void 
  4981 ;; Registers used:
  4982 ;;		wreg, status,2, status,0
  4983 ;; Tracked objects:
  4984 ;;		On entry : 0/0
  4985 ;;		On exit  : 0/0
  4986 ;;		Unchanged: 0/0
  4987 ;; Data sizes:     COMRAM   BANK0   BANK1   BANK2   BANK3   BANK4   BANK5
  4988 ;;      Params:         2       0       0       0       0       0       0
  4989 ;;      Locals:         3       0       0       0       0       0       0
  4990 ;;      Temps:          1       0       0       0       0       0       0
  4991 ;;      Totals:         6       0       0       0       0       0       0
  4992 ;;Total ram usage:        6 bytes
  4993 ;; Hardware stack levels used: 1
  4994 ;; This function calls:
  4995 ;;		Nothing
  4996 ;; This function is called by:
  4997 ;;		_ledDisparado
  4998 ;;		_armada
  4999 ;;		_centralDesarmada
  5000 ;;		_exceptDesarmado
  5001 ;;		_exceptArmado
  5002 ;;		_buzzerArmada
  5003 ;;		_buzzerDesarmada
  5004 ;;		_buzzerDisparada
  5005 ;; This function uses a non-reentrant model
  5006 ;;
  5007                           
  5008                           	psect	text33
  5009  006DA8                     __ptext33:
  5010                           	callstack 0
  5011  006DA8                     _delay:
  5012                           	callstack 29
  5013  006DA8                     
  5014                           ;delay.c: 6:     unsigned char j;;delay.c: 7:     int i;;delay.c: 9:     for (i = 0; i <
      +                           valor; i++) {
  5015  006DA8  0E00               	movlw	0
  5016  006DAA  6E05               	movwf	(delay@i+1)^0,c
  5017  006DAC  0E00               	movlw	0
  5018  006DAE  6E04               	movwf	delay@i^0,c
  5019  006DB0  EFF2  F036         	goto	l2330
  5020  006DB4                     l2308:
  5021                           
  5022                           ;delay.c: 10:         for (j = 0; j < 255; j++);
  5023  006DB4  0E00               	movlw	0
  5024  006DB6  6E06               	movwf	delay@j^0,c
  5025  006DB8                     l2314:
  5026  006DB8  2A06               	incf	delay@j^0,f,c
  5027  006DBA  2806               	incf	delay@j^0,w,c
  5028  006DBC  A4D8               	btfss	status,2,c
  5029  006DBE  EFE3  F036         	goto	u1801
  5030  006DC2  EFE5  F036         	goto	u1800
  5031  006DC6                     u1801:
  5032  006DC6  EFDC  F036         	goto	l2314
  5033  006DCA                     u1800:
  5034  006DCA                     
  5035                           ;delay.c: 11:         for (j = 0; j < 255; j++);
  5036  006DCA  0E00               	movlw	0
  5037  006DCC  6E06               	movwf	delay@j^0,c
  5038  006DCE                     l2324:
  5039  006DCE  2A06               	incf	delay@j^0,f,c
  5040  006DD0  2806               	incf	delay@j^0,w,c
  5041  006DD2  A4D8               	btfss	status,2,c
  5042  006DD4  EFEE  F036         	goto	u1811
  5043  006DD8  EFF0  F036         	goto	u1810
  5044  006DDC                     u1811:
  5045  006DDC  EFE7  F036         	goto	l2324
  5046  006DE0                     u1810:
  5047  006DE0                     
  5048                           ;delay.c: 12:     }
  5049  006DE0  4A04               	infsnz	delay@i^0,f,c
  5050  006DE2  2A05               	incf	(delay@i+1)^0,f,c
  5051  006DE4                     l2330:
  5052  006DE4  5001               	movf	delay@valor^0,w,c
  5053  006DE6  5C04               	subwf	delay@i^0,w,c
  5054  006DE8  5005               	movf	(delay@i+1)^0,w,c
  5055  006DEA  0A80               	xorlw	128
  5056  006DEC  6E03               	movwf	??_delay^0,c
  5057  006DEE  5002               	movf	(delay@valor+1)^0,w,c
  5058  006DF0  0A80               	xorlw	128
  5059  006DF2  5803               	subwfb	??_delay^0,w,c
  5060  006DF4  A0D8               	btfss	status,0,c
  5061  006DF6  EFFF  F036         	goto	u1821
  5062  006DFA  EF01  F037         	goto	u1820
  5063  006DFE                     u1821:
  5064  006DFE  EFDA  F036         	goto	l2308
  5065  006E02                     u1820:
  5066  006E02  0012               	return		;funcret
  5067  006E04                     __end_of_delay:
  5068                           	callstack 0
  5069  0000                     
  5070                           	psect	rparam
  5071  0000                     
  5072                           	psect	idloc
  5073                           
  5074                           ;Config register IDLOC0 @ 0x200000
  5075                           ;	unspecified, using default values
  5076  200000                     	org	2097152
  5077  200000  FF                 	db	255
  5078                           
  5079                           ;Config register IDLOC1 @ 0x200001
  5080                           ;	unspecified, using default values
  5081  200001                     	org	2097153
  5082  200001  FF                 	db	255
  5083                           
  5084                           ;Config register IDLOC2 @ 0x200002
  5085                           ;	unspecified, using default values
  5086  200002                     	org	2097154
  5087  200002  FF                 	db	255
  5088                           
  5089                           ;Config register IDLOC3 @ 0x200003
  5090                           ;	unspecified, using default values
  5091  200003                     	org	2097155
  5092  200003  FF                 	db	255
  5093                           
  5094                           ;Config register IDLOC4 @ 0x200004
  5095                           ;	unspecified, using default values
  5096  200004                     	org	2097156
  5097  200004  FF                 	db	255
  5098                           
  5099                           ;Config register IDLOC5 @ 0x200005
  5100                           ;	unspecified, using default values
  5101  200005                     	org	2097157
  5102  200005  FF                 	db	255
  5103                           
  5104                           ;Config register IDLOC6 @ 0x200006
  5105                           ;	unspecified, using default values
  5106  200006                     	org	2097158
  5107  200006  FF                 	db	255
  5108                           
  5109                           ;Config register IDLOC7 @ 0x200007
  5110                           ;	unspecified, using default values
  5111  200007                     	org	2097159
  5112  200007  FF                 	db	255
  5113                           
  5114                           	psect	config
  5115                           
  5116                           ; Padding undefined space
  5117  300000                     	org	3145728
  5118  300000  FF                 	db	255
  5119                           
  5120                           ;Config register CONFIG1H @ 0x300001
  5121                           ;	Oscillator Selection bits
  5122                           ;	OSC = HS, HS oscillator
  5123                           ;	Fail-Safe Clock Monitor Enable bit
  5124                           ;	FCMEN = OFF, Fail-Safe Clock Monitor disabled
  5125                           ;	Internal/External Oscillator Switchover bit
  5126                           ;	IESO = OFF, Oscillator Switchover mode disabled
  5127  300001                     	org	3145729
  5128  300001  02                 	db	2
  5129                           
  5130                           ;Config register CONFIG2L @ 0x300002
  5131                           ;	Power-up Timer Enable bit
  5132                           ;	PWRT = OFF, PWRT disabled
  5133                           ;	Brown-out Reset Enable bits
  5134                           ;	BOREN = OFF, Brown-out Reset disabled in hardware and software
  5135                           ;	Brown Out Reset Voltage bits
  5136                           ;	BORV = 0x2E, user specified literal
  5137  300002                     	org	3145730
  5138  300002  71                 	db	369
  5139                           
  5140                           ;Config register CONFIG2H @ 0x300003
  5141                           ;	Watchdog Timer Enable bit
  5142                           ;	WDT = OFF, WDT disabled (control is placed on the SWDTEN bit)
  5143                           ;	Watchdog Timer Postscale Select bits
  5144                           ;	WDTPS = 1, 1:1
  5145  300003                     	org	3145731
  5146  300003  00                 	db	0
  5147                           
  5148                           ; Padding undefined space
  5149  300004                     	org	3145732
  5150  300004  FF                 	db	255
  5151                           
  5152                           ;Config register CONFIG3H @ 0x300005
  5153                           ;	CCP2 MUX bit
  5154                           ;	CCP2MX = PORTC, CCP2 input/output is multiplexed with RC1
  5155                           ;	PORTB A/D Enable bit
  5156                           ;	PBADEN = ON, PORTB<4:0> pins are configured as analog input channels on Reset
  5157                           ;	Low-Power Timer1 Oscillator Enable bit
  5158                           ;	LPT1OSC = OFF, Timer1 configured for higher power operation
  5159                           ;	MCLR Pin Enable bit
  5160                           ;	MCLRE = ON, MCLR pin enabled; RE3 input pin disabled
  5161  300005                     	org	3145733
  5162  300005  83                 	db	131
  5163                           
  5164                           ;Config register CONFIG4L @ 0x300006
  5165                           ;	Stack Full/Underflow Reset Enable bit
  5166                           ;	STVREN = OFF, Stack full/underflow will not cause Reset
  5167                           ;	Single-Supply ICSP Enable bit
  5168                           ;	LVP = OFF, Single-Supply ICSP disabled
  5169                           ;	Extended Instruction Set Enable bit
  5170                           ;	XINST = OFF, Instruction set extension and Indexed Addressing mode disabled (Legacy mo
      +                          de)
  5171                           ;	Background Debugger Enable bit
  5172                           ;	DEBUG = OFF, Background debugger disabled, RB6 and RB7 configured as general purpose I
      +                          /O pins
  5173  300006                     	org	3145734
  5174  300006  80                 	db	128
  5175                           
  5176                           ; Padding undefined space
  5177  300007                     	org	3145735
  5178  300007  FF                 	db	255
  5179                           
  5180                           ;Config register CONFIG5L @ 0x300008
  5181                           ;	Code Protection bit
  5182                           ;	CP0 = OFF, Block 0 (000800-001FFFh) not code-protected
  5183                           ;	Code Protection bit
  5184                           ;	CP1 = OFF, Block 1 (002000-003FFFh) not code-protected
  5185                           ;	Code Protection bit
  5186                           ;	CP2 = OFF, Block 2 (004000-005FFFh) not code-protected
  5187                           ;	Code Protection bit
  5188                           ;	CP3 = OFF, Block 3 (006000-007FFFh) not code-protected
  5189  300008                     	org	3145736
  5190  300008  0F                 	db	15
  5191                           
  5192                           ;Config register CONFIG5H @ 0x300009
  5193                           ;	Boot Block Code Protection bit
  5194                           ;	CPB = OFF, Boot block (000000-0007FFh) not code-protected
  5195                           ;	Data EEPROM Code Protection bit
  5196                           ;	CPD = OFF, Data EEPROM not code-protected
  5197  300009                     	org	3145737
  5198  300009  C0                 	db	192
  5199                           
  5200                           ;Config register CONFIG6L @ 0x30000A
  5201                           ;	Write Protection bit
  5202                           ;	WRT0 = OFF, Block 0 (000800-001FFFh) not write-protected
  5203                           ;	Write Protection bit
  5204                           ;	WRT1 = OFF, Block 1 (002000-003FFFh) not write-protected
  5205                           ;	Write Protection bit
  5206                           ;	WRT2 = OFF, Block 2 (004000-005FFFh) not write-protected
  5207                           ;	Write Protection bit
  5208                           ;	WRT3 = OFF, Block 3 (006000-007FFFh) not write-protected
  5209  30000A                     	org	3145738
  5210  30000A  0F                 	db	15
  5211                           
  5212                           ;Config register CONFIG6H @ 0x30000B
  5213                           ;	Configuration Register Write Protection bit
  5214                           ;	WRTC = OFF, Configuration registers (300000-3000FFh) not write-protected
  5215                           ;	Boot Block Write Protection bit
  5216                           ;	WRTB = OFF, Boot block (000000-0007FFh) not write-protected
  5217                           ;	Data EEPROM Write Protection bit
  5218                           ;	WRTD = OFF, Data EEPROM not write-protected
  5219  30000B                     	org	3145739
  5220  30000B  E0                 	db	224
  5221                           
  5222                           ;Config register CONFIG7L @ 0x30000C
  5223                           ;	Table Read Protection bit
  5224                           ;	EBTR0 = OFF, Block 0 (000800-001FFFh) not protected from table reads executed in other
      +                           blocks
  5225                           ;	Table Read Protection bit
  5226                           ;	EBTR1 = OFF, Block 1 (002000-003FFFh) not protected from table reads executed in other
      +                           blocks
  5227                           ;	Table Read Protection bit
  5228                           ;	EBTR2 = OFF, Block 2 (004000-005FFFh) not protected from table reads executed in other
      +                           blocks
  5229                           ;	Table Read Protection bit
  5230                           ;	EBTR3 = OFF, Block 3 (006000-007FFFh) not protected from table reads executed in other
      +                           blocks
  5231  30000C                     	org	3145740
  5232  30000C  0F                 	db	15
  5233                           
  5234                           ;Config register CONFIG7H @ 0x30000D
  5235                           ;	Boot Block Table Read Protection bit
  5236                           ;	EBTRB = OFF, Boot block (000000-0007FFh) not protected from table reads executed in ot
      +                          her blocks
  5237  30000D                     	org	3145741
  5238  30000D  40                 	db	64
  5239                           tosu	equ	0xFFF
  5240                           tosh	equ	0xFFE
  5241                           tosl	equ	0xFFD
  5242                           stkptr	equ	0xFFC
  5243                           pclatu	equ	0xFFB
  5244                           pclath	equ	0xFFA
  5245                           pcl	equ	0xFF9
  5246                           tblptru	equ	0xFF8
  5247                           tblptrh	equ	0xFF7
  5248                           tblptrl	equ	0xFF6
  5249                           tablat	equ	0xFF5
  5250                           prodh	equ	0xFF4
  5251                           prodl	equ	0xFF3
  5252                           indf0	equ	0xFEF
  5253                           postinc0	equ	0xFEE
  5254                           postdec0	equ	0xFED
  5255                           preinc0	equ	0xFEC
  5256                           plusw0	equ	0xFEB
  5257                           fsr0h	equ	0xFEA
  5258                           fsr0l	equ	0xFE9
  5259                           wreg	equ	0xFE8
  5260                           indf1	equ	0xFE7
  5261                           postinc1	equ	0xFE6
  5262                           postdec1	equ	0xFE5
  5263                           preinc1	equ	0xFE4
  5264                           plusw1	equ	0xFE3
  5265                           fsr1h	equ	0xFE2
  5266                           fsr1l	equ	0xFE1
  5267                           bsr	equ	0xFE0
  5268                           indf2	equ	0xFDF
  5269                           postinc2	equ	0xFDE
  5270                           postdec2	equ	0xFDD
  5271                           preinc2	equ	0xFDC
  5272                           plusw2	equ	0xFDB
  5273                           fsr2h	equ	0xFDA
  5274                           fsr2l	equ	0xFD9
  5275                           status	equ	0xFD8

Data Sizes:
    Strings     0
    Constant    0
    Data        126
    BSS         7
    Persistent  0
    Stack       0

Auto Spaces:
    Space          Size  Autos    Used
    COMRAM          127     66     124
    BANK0           128      0      75
    BANK1           256      0       0
    BANK2           256      0       0
    BANK3           256      0       0
    BANK4           256      0       0
    BANK5           256      0       0

Pointer List with Targets:

    None.

Critical Paths under _main in COMRAM

    _main->_mensagemInicial
    _mensagemInicial->_lcdPosition
    _exceptDesarmado->_lcdCommand
    _exceptDesarmado->_lcdData
    _exceptArmado->_lcdCommand
    _exceptArmado->_lcdData
    _cooler->_pwmSet1
    _pwmSet1->___lwdiv
    _centralDesarmada->_mensagemDesarmada
    _mensagemDesarmada->_lcdPosition
    _buzzerDesarmada->_pwmFrequency
    _casaInvadida->_mensagemInvadida
    _mensagemInvadida->_lcdCommand
    _mensagemInvadida->_lcdData
    _ledDisparado->_delay
    _buzzerDisparada->_pwmFrequency
    _armada->_mensagemArmada
    _mensagemArmada->_lcdPosition
    _lcdPosition->_lcdCommand
    _lcdInit->_lcdCommand
    _lcdCommand->_digitalWrite
    _Delay2ms->_Delay40us
    _lcdData->_digitalWrite
    _buzzerArmada->_pwmFrequency
    _pwmSet2->___lwdiv
    _pwmFrequency->___aldiv

Critical Paths under _main in BANK0

    None.

Critical Paths under _main in BANK1

    None.

Critical Paths under _main in BANK2

    None.

Critical Paths under _main in BANK3

    None.

Critical Paths under _main in BANK4

    None.

Critical Paths under _main in BANK5

    None.

Call Graph Tables:

 ---------------------------------------------------------------------------------
 (Depth) Function   	        Calls       Base Space   Used Autos Params    Refs
 ---------------------------------------------------------------------------------
 (0) _main                                                22    22      0   63513
                                             48 COMRAM    18    18      0
                             _armada
                       _casaInvadida
                   _centralDesarmada
                             _cooler
                       _exceptArmado
                    _exceptDesarmado
                         _kpDebounce
                             _kpInit
                             _kpRead
                         _lcdCommand
                    _mensagemInicial
                            _pwmSet1
 ---------------------------------------------------------------------------------
 (1) _mensagemInicial                                     37    37      0    7689
                                             11 COMRAM    37    37      0
                         _lcdCommand
                            _lcdData
                            _lcdInit
                        _lcdPosition
 ---------------------------------------------------------------------------------
 (1) _kpRead                                               2     0      2       0
                                              0 COMRAM     2     0      2
 ---------------------------------------------------------------------------------
 (1) _kpInit                                               0     0      0       0
 ---------------------------------------------------------------------------------
 (1) _kpDebounce                                          10    10      0     210
                                              0 COMRAM    10    10      0
 ---------------------------------------------------------------------------------
 (1) _exceptDesarmado                                     22    22      0    6963
                                              8 COMRAM    22    22      0
                              _delay
                         _lcdCommand
                            _lcdData
                            _lcdInit
 ---------------------------------------------------------------------------------
 (1) _exceptArmado                                        22    22      0    6963
                                              8 COMRAM    22    22      0
                              _delay
                         _lcdCommand
                            _lcdData
                            _lcdInit
 ---------------------------------------------------------------------------------
 (1) _cooler                                               0     0      0    1020
                            _pwmInit
                            _pwmSet1
 ---------------------------------------------------------------------------------
 (1) _pwmSet1                                              5     5      0    1020
                                              7 COMRAM     5     5      0
                            ___lwdiv
                             ___wmul
 ---------------------------------------------------------------------------------
 (1) _centralDesarmada                                     3     3      0   13842
                                             31 COMRAM     3     3      0
                    _buzzerDesarmada
                              _delay
                         _lcdCommand
                  _mensagemDesarmada
 ---------------------------------------------------------------------------------
 (2) _mensagemDesarmada                                   20    20      0    7645
                                             11 COMRAM    20    20      0
                         _lcdCommand
                            _lcdData
                            _lcdInit
                        _lcdPosition
 ---------------------------------------------------------------------------------
 (2) _buzzerDesarmada                                      2     2      0    3076
                              _delay
                       _pwmFrequency
                            _pwmInit
                            _pwmSet2
 ---------------------------------------------------------------------------------
 (1) _casaInvadida                                         9     9      0   10040
                    _buzzerDisparada
                       _ledDisparado
                   _mensagemInvadida
 ---------------------------------------------------------------------------------
 (2) _mensagemInvadida                                    21    21      0    5563
                                              8 COMRAM    21    21      0
                         _lcdCommand
                            _lcdData
                            _lcdInit
 ---------------------------------------------------------------------------------
 (2) _ledDisparado                                         1     1      0    1400
                                              6 COMRAM     1     1      0
                              _delay
 ---------------------------------------------------------------------------------
 (2) _buzzerDisparada                                      2     2      0    3076
                              _delay
                       _pwmFrequency
                            _pwmInit
                            _pwmSet2
 ---------------------------------------------------------------------------------
 (1) _armada                                               4     4      0   13980
                                             27 COMRAM     4     4      0
                       _buzzerArmada
                              _delay
                         _lcdCommand
                     _mensagemArmada
 ---------------------------------------------------------------------------------
 (2) _mensagemArmada                                      16    16      0    7645
                                             11 COMRAM    16    16      0
                         _lcdCommand
                            _lcdData
                            _lcdInit
                        _lcdPosition
 ---------------------------------------------------------------------------------
 (2) _lcdPosition                                          3     2      1    2082
                                              8 COMRAM     3     2      1
                         _lcdCommand
 ---------------------------------------------------------------------------------
 (2) _lcdInit                                              0     0      0    2419
                           _Delay2ms
                         _lcdCommand
                            _pinMode
 ---------------------------------------------------------------------------------
 (3) _pinMode                                              6     2      4     744
                                              0 COMRAM     6     2      4
 ---------------------------------------------------------------------------------
 (3) _lcdCommand                                           2     2      0    1583
                                              6 COMRAM     2     2      0
                           _Delay2ms
                          _Delay40us
                       _digitalWrite
 ---------------------------------------------------------------------------------
 (4) _Delay2ms                                             1     1      0      92
                                              1 COMRAM     1     1      0
                          _Delay40us
 ---------------------------------------------------------------------------------
 (2) _lcdData                                              2     2      0    1447
                                              6 COMRAM     2     2      0
                          _Delay40us
                       _digitalWrite
 ---------------------------------------------------------------------------------
 (4) _digitalWrite                                         6     2      4    1356
                                              0 COMRAM     6     2      4
 ---------------------------------------------------------------------------------
 (4) _Delay40us                                            1     1      0      46
                                              0 COMRAM     1     1      0
 ---------------------------------------------------------------------------------
 (2) _buzzerArmada                                         2     2      0    3122
                                             16 COMRAM     2     2      0
                              _delay
                       _pwmFrequency
                            _pwmInit
                            _pwmSet2
 ---------------------------------------------------------------------------------
 (3) _pwmSet2                                              5     5      0    1020
                                              7 COMRAM     5     5      0
                            ___lwdiv
                             ___wmul
 ---------------------------------------------------------------------------------
 (2) ___wmul                                               6     2      4     463
                                              0 COMRAM     6     2      4
 ---------------------------------------------------------------------------------
 (2) ___lwdiv                                              7     3      4     466
                                              0 COMRAM     7     3      4
 ---------------------------------------------------------------------------------
 (2) _pwmInit                                              0     0      0       0
 ---------------------------------------------------------------------------------
 (3) _pwmFrequency                                         2     0      2     702
                                             14 COMRAM     2     0      2
                            ___aldiv
 ---------------------------------------------------------------------------------
 (4) ___aldiv                                             14     6      8     452
                                              0 COMRAM    14     6      8
 ---------------------------------------------------------------------------------
 (2) _delay                                                6     4      2    1354
                                              0 COMRAM     6     4      2
 ---------------------------------------------------------------------------------
 Estimated maximum stack depth 4
 ---------------------------------------------------------------------------------

 Call Graph Graphs:

 _main (ROOT)
   _armada
     _buzzerArmada
       _delay
       _pwmFrequency
         ___aldiv
       _pwmInit
       _pwmSet2
         ___lwdiv
         ___wmul
     _delay
     _lcdCommand
       _Delay2ms
         _Delay40us
       _Delay40us
       _digitalWrite
     _mensagemArmada
       _lcdCommand
       _lcdData
         _Delay40us
         _digitalWrite
       _lcdInit
         _Delay2ms
         _lcdCommand
         _pinMode
       _lcdPosition
         _lcdCommand
   _casaInvadida
     _buzzerDisparada
       _delay
       _pwmFrequency
       _pwmInit
       _pwmSet2
     _ledDisparado
       _delay
     _mensagemInvadida
       _lcdCommand
       _lcdData
       _lcdInit
   _centralDesarmada
     _buzzerDesarmada
       _delay
       _pwmFrequency
       _pwmInit
       _pwmSet2
     _delay
     _lcdCommand
     _mensagemDesarmada
       _lcdCommand
       _lcdData
       _lcdInit
       _lcdPosition
   _cooler
     _pwmInit
     _pwmSet1
       ___lwdiv
       ___wmul
   _exceptArmado
     _delay
     _lcdCommand
     _lcdData
     _lcdInit
   _exceptDesarmado
     _delay
     _lcdCommand
     _lcdData
     _lcdInit
   _kpDebounce
   _kpInit
   _kpRead
   _lcdCommand
   _mensagemInicial
     _lcdCommand
     _lcdData
     _lcdInit
     _lcdPosition
   _pwmSet1

 Address spaces:
Name               Size   Autos  Total    Cost      Usage
BIGRAM             5FF      0       0      17        0.0%
EEDATA             100      0       0       0        0.0%
BITBANK5           100      0       0      16        0.0%
BANK5              100      0       0      14        0.0%
BITBANK4           100      0       0      12        0.0%
BANK4              100      0       0      13        0.0%
BITBANK3           100      0       0      10        0.0%
BANK3              100      0       0      11        0.0%
BITBANK2           100      0       0       8        0.0%
BANK2              100      0       0       9        0.0%
BITBANK1           100      0       0       6        0.0%
BANK1              100      0       0       7        0.0%
BITBANK0            80      0       0       4        0.0%
BANK0               80      0      4B       5       58.6%
BITCOMRAM           7F      0       0       0        0.0%
COMRAM              7F     42      7C       1       97.6%
BITSFR               0      0       0     200        0.0%
SFR                  0      0       0     200        0.0%
STACK                0      0       0       2        0.0%
NULL                 0      0       0       0        0.0%
ABS                  0      0      C7      15        0.0%
DATA                 0      0      C7       3        0.0%
CODE                 0      0       0       0        0.0%


Microchip Technology PIC18 Macro Assembler V2.32 build 20210201212658 
Symbol Table                                                                                   Sun Aug 01 19:27:41 2021

                        l42 7DB0                          l76 7FFE                          l94 6B34  
                        l89 6B18         ___wmul@multiplicand 0003                         l101 720C  
                       l104 6CF8                         l120 6AEC                         l107 7096  
                       l140 794A                         l222 6DA6                         l302 759A  
                       l215 6E02                         l231 6B52                         l143 6AE2  
                       l152 6B78                         l320 74B0                         l242 72A2  
                       l402 7112                         l410 6FAA                         l146 6F38  
                       l330 73FE                         l138 792A                         l155 6B00  
                       l139 7942                         l413 6B9E                         l149 6ECC  
                       l238 7266                         l239 728C                         l265 77D0  
                       l257 7714                         l362 6E60                         l258 7752  
                       l365 6BEE                         l349 6BC4                         l294 74DC  
                       l368 6C58                         l394 718E                         l386 734C  
                       l492 76A6                         l911 701E                         l904 7016  
                       u820 78EE                         u804 7896                         u821 78EA  
                       u805 7890                         u830 7900                         u814 78C6  
                       u831 78FC                         u815 78C0                         u840 7918  
                       u841 7914                         u850 793A                         u770 7848  
                       u754 77F4                         u851 7936                         u771 7844  
                       u755 77F0                         u764 7814                         u765 7810  
                       u790 7878                         u791 7874                         u784 785E  
                       u785 785A                         wreg 000FE8    __end_of_centralDesarmada 759C  
                      l2110 7DB2                        l2200 761E                        l2104 6B1E  
                      l2120 7E3E                        l2112 7DCE                        l2210 7666  
                      l2202 762C                        l2106 6B22                        l2130 7EC8  
                      l2122 7E50                        l2114 7DE0                        l2212 7670  
                      l2204 7636                        l2300 6EA6                        l2060 7B80  
                      l2108 6B24                        l2140 7F64                        l2132 7EEC  
                      l2124 7E74                        l2116 7E00                        l2206 7654  
                      l2214 7676                        l2230 6FD6                        l2222 6FAC  
                      l2302 6EBE                        l2054 6B06                        l2070 7C0A  
                      l2062 7B92                        l2150 7192                        l2142 7F8A  
                      l2134 7F12                        l2126 7E9A                        l2118 7E22  
                      l2216 7686                        l2208 7664                        l2304 6B54  
                      l1344 6AEE                        l2240 700A                        l2232 6FE4  
                      l2224 6FB4                        l2056 6B08                        l2048 6B02  
                      l2080 7CA2                        l2072 7C2A                        l2064 7BB2  
                      l2160 71C6                        l2152 7196                        l2144 7FA6  
                      l2136 7F2E                        l2128 7EB6                        l1600 7918  
                      l2314 6DB8                        l2330 6DE4                        l2306 6DA8  
                      l2218 7696                        l1346 6AF2                        l2242 7010  
                      l2234 6FEA                        l2226 6FC6                        l2090 7D3C  
                      l2082 7CC4                        l2074 7C4C                        l2066 7BD4  
                      l2058 7B64                        l2250 6CC4                        l2170 7208  
                      l2162 71DA                        l2154 719A                        l2146 7FB8  
                      l2138 7F40                        l2402 6D94                        l2410 6F50  
                      l1602 791E                        l1610 6ADA                        l2324 6DCE  
                      l2316 6DBA                        l2308 6DB4                        l2180 75A0  
                      l1348 6AF6                        l2236 7000                        l2228 6FCE  
                      l2172 6B7A                        l2092 7D58                        l2084 7CE0  
                      l2076 7C68                        l2068 7BF0                        l2252 6CC8  
                      l2244 6CA8                        l2164 71DE                        l2156 71AE  
                      l2148 7FDC                        l2260 7020                        l2340 723A  
                      l2332 7210                        l2404 6D96                        l2420 6F70  
                      l2412 6F56                        l2500 716E                        l1604 7922  
                      l2326 6DD0                        l2318 6DCA                        l2190 75E0  
                      l2182 75AE                        l2238 7008                        l2174 6B96  
                      l2094 7D72                        l2086 7CFA                        l2078 7C82  
                      l2254 6CDC                        l2246 6CAC                        l2166 71F0  
                      l2158 71B2                        l2270 7058                        l2262 7048  
                      l2350 7286                        l2342 7240                        l2334 7214  
                      l2430 6C34                        l2422 6F84                        l2406 6F3A  
                      l2502 7172                        l1606 793A                        l2510 6AE4  
                      l2328 6DE0                        l2192 75E4                        l2184 75BE  
                      l2096 7D92                        l2088 7D1A                        l2256 6CF0  
                      l2248 6CB0                        l2168 7200                        l2280 706E  
                      l2272 705C                        l2264 704C                        l2352 729C  
                      l2344 7250                        l2336 7224                        l2440 70AE  
                      l2600 7768                        l2432 6C3A                        l2424 6F8A  
                      l2408 6F4C                        l2504 6BC6                        l2360 6EEE  
                      l1608 7946                        l1560 77DA                        l2512 72A4  
                      l2194 75F4                        l2186 75C2                        l2178 759C  
                      l2258 6CF4                        l2098 6B1A                        l2290 708A  
                      l2282 7074                        l2274 7060                        l2266 7050  
                      l2346 7260                        l2338 722A                        l2450 70C6  
                      l2442 70B4                        l2610 7772                        l2602 776A  
                      l2434 6C4C                        l2370 6D58                        l2426 6F8E  
                      l2418 6F5E                        l2506 6BD6                        l2362 6F0A  
                      l2530 72F8                        l2514 72B6                        l2196 760A  
                      l2188 75D0                        l2460 6E04                        l2292 7090  
                      l2284 7078                        l2276 7066                        l2268 7054  
                      l2356 729C                        l2348 7276                        l2452 70D8  
                      l2444 70BE                        l2436 7098                        l2612 7774  
                      l2604 776E                        l2428 6C24                        l2380 6D68  
                      l2372 6D5A                        l2508 6BDC                        l2700 7554  
                      l2364 6F12                        l1556 77D2                        l2540 7330  
                      l2532 730C                        l2524 72CC                        l2516 72BA  
                      l2198 7612                        l2294 6E64                        l2470 6E1C  
                      l2462 6E08                        l2286 707E                        l2278 706A  
                      l2454 70EC                        l2438 70AA                        l2630 77A6  
                      l2614 7784                        l2550 76BA                        l2542 76A8  
                      l2390 6D88                        l2382 6D74                        l2374 6D5E  
                      l2366 6F2A                        l2358 6ED0                        l1590 78DC  
                      l1574 7828                        l1566 77DE                        l1558 77D6  
                      l2534 7312                        l2526 72DE                        l2518 72C4  
                      l2296 6E82                        l2472 6E22                        l2288 7084  
                      l2456 70F2                        l2632 77C2                        l2624 7790  
                      l2616 7788                        l2552 76C6                        l2544 76B0  
                      l2392 6D8A                        l2384 6D78                        l2376 6D62  
                      l2368 6D50                        l2480 7114                        l2720 7592  
                      l2712 7560                        l2640 6BBC                        l2800 73CC  
                      l1592 78DE                        l1584 784C                        l1576 782C  
                      l1568 7820                        l2536 7326                        l2528 72F2  
                      l2298 6E9E                        l2474 6E34                        l2458 70F6  
                      l2634 77CA                        l2626 7792                        l2618 778C  
                      l2570 76DC                        l2562 76D6                        l2554 76CA  
                      l2546 76B2                        l2394 6D8C                        l2386 6D84  
                      l2378 6D66                        l2730 6B4E                        l2482 7126  
                      l2722 7598                        l2714 7562                        l2706 755C  
                      l2650 74C0                        l2642 6BC2                        l2802 73D8  
                      l1594 78EE                        l1586 7878                        l1578 7848  
                      l2538 732C                        l2810 797C                        l2476 6E40  
                      l2468 6E10                        l2628 77A2                        l2572 76EC  
                      l2556 76CE                        l2548 76B6                        l2396 6D90  
                      l2388 6D86                        l2724 6B36                        l2484 712A  
                      l2716 7572                        l2652 74C4                        l2644 74B2  
                      l2636 6BA0                        l2804 73DC                        l2740 7422  
                      l2732 7400                        l1596 78F0                        l1588 78A8  
                      l2900 7B1C                        l2820 79BA                        l2812 7980  
                      l2478 6E44                        l2590 7736                        l2582 7716  
                      l2574 76F0                        l2726 6B46                        l2494 7142  
                      l2486 7130                        l2718 7576                        l2670 74FA  
                      l2654 74D0                        l2646 74BA                        l2638 6BB8  
                      l2806 73F8                        l2750 7444                        l2734 7412  
                      l1598 7900                        l2910 7B32                        l2830 7A18  
                      l2822 79D8                        l2814 7992                        l2592 7754  
                      l2584 7722                        l2576 770C                        l2568 76DA  
                      l2728 6B4A                        l2496 7154                        l2488 713A  
                      l2680 7510                        l2672 74FC                        l2664 74DE  
                      l2656 74D4                        l2648 74BC                        l2752 7456  
                      l2736 7416                        l2840 7A6A                        l2832 7A2A  
                      l2824 79EA                        l2816 7996                        l2808 794C  
                      l2594 7760                        l2586 7726                        l2498 7168  
                      l2690 752A                        l2682 7516                        l2674 750C  
                      l2666 74EA                        l2658 74D8                        l2770 734E  
                      l2762 747E                        l2754 745A                        l2746 742A  
                      l2738 741C                        l2850 7A88                        l2834 7A3E  
                      l2826 79FE                        l2842 7A72                        l2818 799E  
                      l2588 7732                        l2692 752C                        l2684 751A  
                      l2668 74EE                        l2772 7360                        l2764 748A  
                      l2756 7476                        l2748 743E                        l2860 7AA8  
                      l2852 7A90                        l2844 7A7A                        l2836 7A46  
                      l2828 7A06                        l2694 753C                        l2686 7526  
                      l2790 73A4                        l2774 7364                        l2766 748E  
                      l2870 7AC2                        l2862 7AAE                        l2854 7A98  
                      l2846 7A80                        l2838 7A58                        l2696 753E  
                      l2688 7528                        l2792 73A8                        l2784 7378  
                      l2776 736A                        l2768 74AA                        l2880 7AF2  
                      l2872 7AC6                        l2864 7ABA                        l2856 7A9C  
                      l2848 7A84                        l2698 754E                        l2794 73C4  
                      l2786 738C                        l2778 7370                        l2882 7AFA  
                      l2874 7ACA                        l2858 7AA4                        l2788 7392  
                      l2892 7B14                        l2876 7AE6                        l2886 7B04  
                      l2878 7AEE                        l2888 7B08                        u2000 718E  
                      u2001 718A                        u2011 72AE                        u2100 77A2  
                      u2020 72F2                        u2101 779E                        u2021 72EE  
                      u2110 77C2                        u2030 730C                        u2111 77BE  
                      u2031 7308                        u1400 7CE0                        u1320 7BF0  
                      u1304 7BA4                        u2120 750C                        u2040 7326  
                      u1401 7CDC                        u1321 7BEC                        u1305 7BA0  
                      u2121 7508                        u2201 7358                        u2041 7322  
                      u1410 7CFA                        u1330 7C0A                        u1314 7BC4  
                      u2130 754E                        u2210 738C                        u2050 734C  
                      u1411 7CF6                        u1331 7C06                        u1315 7BC0  
                      u2131 754A                        u2211 7388                        u2051 7348  
                      u1500 7DE0                        u2060 76EC                        u2140 7572  
                      u2220 73C4                        u2300 7A58                        u1501 7DDC  
                      u2061 76E8                        u2141 756E                        u2221 73C0  
                      u2301 7A54                        u1270 6B18                        u2070 770C  
                      u2150 7592                        u2230 73F8                        u2310 7A6A  
                      u1271 6B14                        u2071 7708                        u2151 758E  
                      u2231 73F4                        u2311 7A66                        u1440 7D58  
                      u1424 7D0C                        u1360 7C68                        u1344 7C1C  
                      u1280 7B80                        u2080 7752                        u2320 7AE6  
                      u2240 7992                        u1441 7D54                        u1425 7D08  
                      u1361 7C64                        u1345 7C18                        u1281 7B7C  
                      u2081 774E                        u2161 740A                        u2321 7AE2  
                      u2241 798E                        u1450 7D72                        u1434 7D2C  
                      u1370 7C82                        u1354 7C3C                        u1290 7B92  
                      u1610 7F2E                        u1530 7E3E                        u1514 7DF2  
                      u2090 7784                        u2170 743E                        u2250 79BA  
                      u1451 7D6E                        u1435 7D28                        u1371 7C7E  
                      u1355 7C38                        u1291 7B8E                        u1611 7F2A  
                      u1531 7E3A                        u1515 7DEE                        u2091 7780  
                      u2171 743A                        u2251 79B6                        u1700 7200  
                      u1620 7F40                        u1604 7F02                        u1540 7E50  
                      u1524 7E12                        u2180 7476                        u2260 79D8  
                      u1701 71FC                        u1621 7F3C                        u1605 7EFE  
                      u1541 7E4C                        u1525 7E0E                        u2181 7472  
                      u2261 79D4                        u1710 75AE                        u2190 74AA  
                      u2270 79EA                        u1711 75AA                        u2191 74A6  
                      u2271 79E6                        u1800 6DCA                        u1720 75D0  
                      u1464 7D84                        u1384 7C94                        u1480 6B34  
                      u2280 7A18                        u1801 6DC6                        u1721 75CC  
                      u1465 7D80                        u1385 7C90                        u1481 6B30  
                      u2281 7A14                        u1810 6DE0                        u1730 760A  
                      u1474 7DA4                        u1394 7CB4                        u1650 7FA6  
                      u1634 7F56                        u1570 7EB6                        u1554 7E66  
                      u1490 7DCE                        u2290 7A2A                        u1811 6DDC  
                      u1731 7606                        u1475 7DA0                        u1395 7CB0  
                      u1651 7FA2                        u1635 7F52                        u1571 7EB2  
                      u1555 7E62                        u1491 7DCA                        u2291 7A26  
                      u1820 6E02                        u1740 762C                        u1660 7FB8  
                      u1644 7F7A                        u1580 7EC8                        u1564 7E8A  
                      u1900 6DA6                        u1821 6DFE                        u1741 7628  
                      u1661 7FB4                        u1645 7F76                        u1581 7EC4  
                      u1565 7E86                        u1901 6DA2                        u1750 7654  
                      u1830 7224                        u1751 7650                        u1831 7220  
                      u1911 6F44                        u1760 7686                        u1840 723A  
                      u1920 6F84                        u1761 7682                        u1841 7236  
                      u1921 6F80                        u1770 6FC6                        u1690 71F0  
                      u1674 7FCE                        u1594 7EDE                        u1850 7250  
                      u1930 6FAA                        u1771 6FC2                        u1691 71EC  
                      u1675 7FCA                        u1595 7EDA                        u1851 724C  
                      u1931 6FA6                        u1780 6FE4                        u1684 7FF2  
                      u1860 7260                        u1781 6FE0                        u1685 7FEE  
                      u1861 725C                        u1941 70A2                        u1790 7000  
                      u1870 7276                        u1950 70EC                        u1791 6FFC  
                      u1871 7272                        u1951 70E8                        u1880 7286  
                      u1960 7112                        u1881 7282                        u1961 710E  
                      u1970 6E60                        u1890 729C                        u1971 6E5C  
                      u1891 7298                        u1981 711E                        u1990 7168  
                      u1991 7164            ?_exceptDesarmado 0001                        _main 794C  
                      indf2 000FDF                        fsr1l 000FE1                        fsr2l 000FD9  
          ??_mensagemArmada 000C                        prodh 000FF4                        prodl 000FF3  
                      start 0000                ___param_bank 000000             __end_of___aldiv 76A8  
                     ?_main 0001             __end_of___lwdiv 7020               buzzerArmada@i 0011  
                     _PORTA 000F80                       _PORTB 000F81                       _PORTC 000F82  
                     _PORTD 000F83                       _PORTE 000F84                       _TRISA 000F92  
                     _TRISB 000F93                       _TRISC 000F94                       _TRISD 000F95  
                     _TRISE 000F96             __end_of_lcdData 6CFA             __end_of_lcdInit 7098  
                     _delay 6DA8             __end_of_pinMode 8000                       _valor 007A  
                     main@i 003B                       tablat 000FF5                main@verifica 0039  
           __end_of_pwmSet1 6F3A             __end_of_pwmInit 6B02             __end_of_pwmSet2 6ECE  
                     plusw1 000FE3                       plusw2 000FDB           ??_mensagemInicial 000C  
                     status 000FD8            __end_of_Delay2ms 6B36               ?_exceptArmado 0001  
      __end_of_digitalWrite 7DB2             __initialization 6CFA                __end_of_main 7B64  
        __size_of_Delay40us 0018       __size_of_casaInvadida 001E                      ??_main 0031  
      __end_of_ledDisparado 6DA8               __activetblptr 000002           mensagemArmada@F24 0068  
         mensagemArmada@msg 000C                      ?_delay 0001                      _ADCON1 000FC1  
      __size_of_lcdPosition 0096              ??_exceptArmado 0009                _casaInvadida 6B36  
         lcdPosition@coluna 000B                   ??___aldiv 0009                      ___wmul 6B7A  
                    _armada 76A8                   ??___lwdiv 0005                      _kpInit 6ADA  
                    _kpRead 6AE4                      _cooler 6BA0                      delay@i 0004  
                    delay@j 0006                      clear_0 6D40                   ??_lcdData 0007  
                    isa$std 000001                   ??_lcdInit 0009                      main@ar 0041  
                    main@lc 003D                      main@op 003F                __pdataCOMRAM 0043  
                 ??_pinMode 0005                      tblptrh 000FF7                      tblptrl 000FF6  
                    tblptru 000FF8           ?_mensagemInvadida 0001                   ??_pwmSet1 0008  
                 ??_pwmSet2 0008                   ??_pwmInit 0001               ?_buzzerArmada 0001  
         __end_of_Delay40us 6B1A           mensagemInvadida@i 001C          ??_mensagemInvadida 0009  
  __size_of_buzzerDesarmada 002A                  __accesstop 0080     __end_of__initialization 6D46  
             ___rparam_used 000001    __size_of_buzzerDisparada 0036                 pinMode@type 0003  
            __pcstackCOMRAM 0001                __pidataBANK0 6C5B               __end_of_delay 6E04  
                 ?_Delay2ms 0001        mensagemDesarmada@F20 0056              ??_buzzerArmada 0011  
         ?_centralDesarmada 0001                     ??_delay 0003        mensagemDesarmada@msg 000C  
        ??_centralDesarmada 0020       __size_of_digitalWrite 024E          mensagemDesarmada@i 001E  
                _lcdCommand 7190                     ?___wmul 0001       __size_of_ledDisparado 0058  
                   ?_armada 0001                     ?_kpInit 0001                     ?_kpRead 0001  
                   ?_cooler 0001                  _kpDebounce 77D2            exceptDesarmado@i 001D  
                   _INTCON2 000FF1                  ??_Delay2ms 0002             _mensagemInicial 72A4  
      __end_of_exceptArmado 7400                _digitalWrite 7B64                _ledDisparado 6D50  
                   __Hparam 0000                     __Lparam 0000          exceptDesarmado@F13 00B7  
         ??_buzzerDesarmada 0011             kpDebounce@old_D 0006          lcdPosition@comando 000A  
           kpDebounce@tempo 007C    __size_of_exceptDesarmado 00B2                     ___aldiv 759C  
           __size_of___wmul 0026                     ___lwdiv 6FAC             __size_of_armada 012A  
         ??_buzzerDisparada 0011             __size_of_kpInit 000A             __size_of_kpRead 000A  
           __size_of_cooler 0026                     __pcinit 6CFA                     _lcdData 6CA6  
                   __ramtop 0600                     _lcdInit 7020                     __ptext0 794C  
                   __ptext1 72A4                     __ptext2 6AE4                     __ptext3 6ADA  
                   __ptext4 77D2                     __ptext5 7400                     __ptext6 734E  
                   __ptext7 6BA0                     __ptext8 6ECE                     __ptext9 74B2  
         _mensagemDesarmada 7114          mensagemInicial@F16 0080                     _pinMode 7DB2  
        ?_mensagemDesarmada 0001            ___aldiv@dividend 0001                  delay@valor 0001  
        mensagemInicial@msg 000C                     armada@j 001C                     armada@l 001E  
                   _pwmSet1 6ECE                     _pwmSet2 6E62                     _pwmInit 6AEE  
                 Delay2ms@i 0002                     main@ver 0037         kpDebounce@valorNovo 0078  
      end_of_initialization 6D46         ??_mensagemDesarmada 000C               __Lmediumconst 0000  
             ?_pwmFrequency 000F            ___aldiv@quotient 000B        __end_of_buzzerArmada 6E62  
                   postdec1 000FE5                 ?_lcdCommand 0001                     postinc0 000FEE  
                armada@temp 001D     __end_of_mensagemInicial 734E   __end_of_mensagemDesarmada 7190  
    exceptDesarmado@mensage 0009     __size_of_mensagemArmada 007C                 ?_kpDebounce 0001  
                 _PORTCbits 000F82               ??_lcdPosition 000A           centralDesarmada@i 0020  
         centralDesarmada@j 0022              ??_pwmFrequency 0011                   _Delay40us 6B02  
 __size_of_mensagemInvadida 0072              __end_of___wmul 6BA0               __pidataCOMRAM 6BF1  
            __end_of_armada 77D2              __end_of_kpInit 6AE4              __end_of_kpRead 6AEE  
            __end_of_cooler 6BC6       __size_of_exceptArmado 00B2           ??_exceptDesarmado 0009  
       start_initialization 6CFA           __size_of_Delay2ms 001C         __size_of_lcdCommand 007E  
       __size_of_kpDebounce 017A                  ?_Delay40us 0001         __end_of_lcdPosition 72A4  
 __size_of_centralDesarmada 00EA                _exceptArmado 734E            lcdPosition@linha 0009  
                  ??___wmul 0005            mensagemInicial@i 002F                    ??_armada 001C  
                  ??_kpInit 0001                    ??_kpRead 0003                    ??_cooler 000D  
               __pdataBANK0 0080  __size_of_mensagemDesarmada 007C            ?_mensagemInicial 0001  
               __pbssCOMRAM 0076                  pinMode@pin 0001             _buzzerDesarmada 6BC6  
     __size_of_buzzerArmada 005E             _buzzerDisparada 6C24            ___lwdiv@dividend 0001  
             exceptArmado@i 001D                    ?___aldiv 0001                    ?___lwdiv 0001  
           exceptArmado@F17 00A3              _mensagemArmada 7098                    ?_lcdData 0001  
                  ?_lcdInit 0001        __end_of_pwmFrequency 6B7A               lcdCommand@cmd 0008  
                  ?_pinMode 0001                    ?_pwmSet1 0001                    ?_pwmInit 0001  
                  ?_pwmSet2 0001            ___lwdiv@quotient 0005              __size_of_delay 005C  
              _buzzerArmada 6E04                 _lcdPosition 720E            pwmFrequency@freq 000F  
           ___aldiv@divisor 0005             ___aldiv@counter 0009                 ??_Delay40us 0001  
            ___wmul@product 0005               ?_casaInvadida 0001            _mensagemInvadida 6F3A  
    __end_of_mensagemArmada 7114                ??_lcdCommand 0007                  pwmSet1@val 000B  
                pwmSet2@val 000B                ??_kpDebounce 0001           ___wmul@multiplier 0001  
           lcdCommand@old_D 0007       kpDebounce@valorAntigo 0076     __end_of_buzzerDesarmada 6BF0  
                  _Delay2ms 6B1A                   main@valor 0035     __end_of_buzzerDisparada 6C5A  
                 copy_data0 6D0E                   copy_data1 6D2E          __end_of_lcdCommand 720E  
              lcdData@old_D 0008                lcdData@valor 0007              ??_casaInvadida 001E  
        __end_of_kpDebounce 794C             mensagemArmada@i 001A                    __Hrparam 0000  
           _exceptDesarmado 7400            _centralDesarmada 74B2                    __Lrparam 0000  
           ?_mensagemArmada 0001            __size_of___aldiv 010C            __size_of___lwdiv 0074  
           pwmSet1@porcento 000A            __size_of_lcdData 0054            __size_of_lcdInit 0078  
           pwmSet2@porcento 000A               ledDisparado@i 0007            __size_of_pinMode 024E  
           ___lwdiv@divisor 0003             ___lwdiv@counter 0007                    __ptext10 7114  
                  __ptext11 6BC6                    __ptext20 7DB2                    __ptext12 6B36  
                  __ptext21 7190                    __ptext13 6F3A                    __ptext30 6AEE  
                  __ptext22 6B1A                    __ptext14 6D50                    __ptext31 6B54  
                  __ptext23 6CA6                    __ptext15 6C24                    __ptext32 759C  
                  __ptext24 7B64                    __ptext16 76A8                    __ptext33 6DA8  
                  __ptext25 6B02                    __ptext17 7098                    __ptext26 6E04  
                  __ptext18 720E                    __ptext27 6E62                    __ptext19 7020  
                  __ptext28 6B7A                    __ptext29 6FAC            __size_of_pwmSet1 006C  
          __size_of_pwmInit 0014            __size_of_pwmSet2 006C               __size_of_main 0218  
                Delay40us@i 0001                    isa$xinst 000000       __size_of_pwmFrequency 0026  
                  main@cont 0033            ?_buzzerDesarmada 0001               ?_digitalWrite 0001  
          ?_buzzerDisparada 0001     __end_of_exceptDesarmado 74B2           digitalWrite@value 0003  
       exceptArmado@mensage 0009               ?_ledDisparado 0001                _pwmFrequency 6B54  
       mensagemInvadida@F28 0043        __end_of_casaInvadida 6B54                 kpDebounce@i 000A  
               kpDebounce@j 0009                 kpDebounce@k 0007              ??_digitalWrite 0005  
  __end_of_mensagemInvadida 6FAC         mensagemInvadida@msg 0009                ___aldiv@sign 000A  
  __size_of_mensagemInicial 00AA                ?_lcdPosition 0009             digitalWrite@pin 0001  
            ??_ledDisparado 0007  
